
ATmega128.elf:     file format elf32-avr

Sections:
Idx Name          Size      VMA       LMA       File off  Algn
  0 .data         00000076  00800100  00000efe  00000f92  2**0
                  CONTENTS, ALLOC, LOAD, DATA
  1 .text         00000efe  00000000  00000000  00000094  2**1
                  CONTENTS, ALLOC, LOAD, READONLY, CODE
  2 .bss          0000001c  00800176  00800176  00001008  2**0
                  ALLOC
  3 .comment      00000030  00000000  00000000  00001008  2**0
                  CONTENTS, READONLY
  4 .note.gnu.avr.deviceinfo 0000003c  00000000  00000000  00001038  2**2
                  CONTENTS, READONLY
  5 .debug_aranges 00000120  00000000  00000000  00001074  2**0
                  CONTENTS, READONLY, DEBUGGING
  6 .debug_info   00002f78  00000000  00000000  00001194  2**0
                  CONTENTS, READONLY, DEBUGGING
  7 .debug_abbrev 00000edd  00000000  00000000  0000410c  2**0
                  CONTENTS, READONLY, DEBUGGING
  8 .debug_line   000010f6  00000000  00000000  00004fe9  2**0
                  CONTENTS, READONLY, DEBUGGING
  9 .debug_frame  00000354  00000000  00000000  000060e0  2**2
                  CONTENTS, READONLY, DEBUGGING
 10 .debug_str    00000985  00000000  00000000  00006434  2**0
                  CONTENTS, READONLY, DEBUGGING
 11 .debug_loc    000016ee  00000000  00000000  00006db9  2**0
                  CONTENTS, READONLY, DEBUGGING
 12 .debug_ranges 000000e0  00000000  00000000  000084a7  2**0
                  CONTENTS, READONLY, DEBUGGING

Disassembly of section .text:

00000000 <__vectors>:
   0:	62 c0       	rjmp	.+196    	; 0xc6 <__ctors_end>
   2:	00 00       	nop
   4:	87 c0       	rjmp	.+270    	; 0x114 <__bad_interrupt>
   6:	00 00       	nop
   8:	85 c0       	rjmp	.+266    	; 0x114 <__bad_interrupt>
   a:	00 00       	nop
   c:	83 c0       	rjmp	.+262    	; 0x114 <__bad_interrupt>
   e:	00 00       	nop
  10:	81 c0       	rjmp	.+258    	; 0x114 <__bad_interrupt>
  12:	00 00       	nop
  14:	7f c0       	rjmp	.+254    	; 0x114 <__bad_interrupt>
  16:	00 00       	nop
  18:	7d c0       	rjmp	.+250    	; 0x114 <__bad_interrupt>
  1a:	00 00       	nop
  1c:	7b c0       	rjmp	.+246    	; 0x114 <__bad_interrupt>
  1e:	00 00       	nop
  20:	79 c0       	rjmp	.+242    	; 0x114 <__bad_interrupt>
  22:	00 00       	nop
  24:	77 c0       	rjmp	.+238    	; 0x114 <__bad_interrupt>
  26:	00 00       	nop
  28:	d0 c0       	rjmp	.+416    	; 0x1ca <__vector_10>
  2a:	00 00       	nop
  2c:	73 c0       	rjmp	.+230    	; 0x114 <__bad_interrupt>
  2e:	00 00       	nop
  30:	29 c3       	rjmp	.+1618   	; 0x684 <__vector_12>
  32:	00 00       	nop
  34:	6f c0       	rjmp	.+222    	; 0x114 <__bad_interrupt>
  36:	00 00       	nop
  38:	6d c0       	rjmp	.+218    	; 0x114 <__bad_interrupt>
  3a:	00 00       	nop
  3c:	6b c0       	rjmp	.+214    	; 0x114 <__bad_interrupt>
  3e:	00 00       	nop
  40:	69 c0       	rjmp	.+210    	; 0x114 <__bad_interrupt>
  42:	00 00       	nop
  44:	67 c0       	rjmp	.+206    	; 0x114 <__bad_interrupt>
  46:	00 00       	nop
  48:	65 c0       	rjmp	.+202    	; 0x114 <__bad_interrupt>
  4a:	00 00       	nop
  4c:	63 c0       	rjmp	.+198    	; 0x114 <__bad_interrupt>
  4e:	00 00       	nop
  50:	61 c0       	rjmp	.+194    	; 0x114 <__bad_interrupt>
  52:	00 00       	nop
  54:	5f c0       	rjmp	.+190    	; 0x114 <__bad_interrupt>
  56:	00 00       	nop
  58:	5d c0       	rjmp	.+186    	; 0x114 <__bad_interrupt>
  5a:	00 00       	nop
  5c:	5b c0       	rjmp	.+182    	; 0x114 <__bad_interrupt>
  5e:	00 00       	nop
  60:	59 c0       	rjmp	.+178    	; 0x114 <__bad_interrupt>
  62:	00 00       	nop
  64:	57 c0       	rjmp	.+174    	; 0x114 <__bad_interrupt>
  66:	00 00       	nop
  68:	55 c0       	rjmp	.+170    	; 0x114 <__bad_interrupt>
  6a:	00 00       	nop
  6c:	53 c0       	rjmp	.+166    	; 0x114 <__bad_interrupt>
  6e:	00 00       	nop
  70:	51 c0       	rjmp	.+162    	; 0x114 <__bad_interrupt>
  72:	00 00       	nop
  74:	4f c0       	rjmp	.+158    	; 0x114 <__bad_interrupt>
  76:	00 00       	nop
  78:	4d c0       	rjmp	.+154    	; 0x114 <__bad_interrupt>
  7a:	00 00       	nop
  7c:	4b c0       	rjmp	.+150    	; 0x114 <__bad_interrupt>
  7e:	00 00       	nop
  80:	49 c0       	rjmp	.+146    	; 0x114 <__bad_interrupt>
  82:	00 00       	nop
  84:	47 c0       	rjmp	.+142    	; 0x114 <__bad_interrupt>
  86:	00 00       	nop
  88:	45 c0       	rjmp	.+138    	; 0x114 <__bad_interrupt>
  8a:	00 00       	nop
  8c:	31 04       	cpc	r3, r1
  8e:	33 04       	cpc	r3, r3
  90:	35 04       	cpc	r3, r5
  92:	37 04       	cpc	r3, r7
  94:	39 04       	cpc	r3, r9
  96:	3b 04       	cpc	r3, r11
  98:	3e 04       	cpc	r3, r14
  9a:	4c 04       	cpc	r4, r12
  9c:	4e 04       	cpc	r4, r14
  9e:	50 04       	cpc	r5, r0
  a0:	52 04       	cpc	r5, r2
  a2:	54 04       	cpc	r5, r4
  a4:	56 04       	cpc	r5, r6
  a6:	59 04       	cpc	r5, r9
  a8:	30 06       	cpc	r3, r16
  aa:	33 06       	cpc	r3, r19
  ac:	36 06       	cpc	r3, r22
  ae:	39 06       	cpc	r3, r25
  b0:	3c 06       	cpc	r3, r28
  b2:	3f 06       	cpc	r3, r31
  b4:	44 06       	cpc	r4, r20
  b6:	f7 06       	cpc	r15, r23
  b8:	fe 06       	cpc	r15, r30
  ba:	05 07       	cpc	r16, r21
  bc:	0c 07       	cpc	r16, r28
  be:	13 07       	cpc	r17, r19
  c0:	1a 07       	cpc	r17, r26
  c2:	21 07       	cpc	r18, r17

000000c4 <__ctors_start>:
  c4:	22 04       	cpc	r2, r2

000000c6 <__ctors_end>:
  c6:	11 24       	eor	r1, r1
  c8:	1f be       	out	0x3f, r1	; 63
  ca:	cf ef       	ldi	r28, 0xFF	; 255
  cc:	d0 e1       	ldi	r29, 0x10	; 16
  ce:	de bf       	out	0x3e, r29	; 62
  d0:	cd bf       	out	0x3d, r28	; 61

000000d2 <__do_copy_data>:
  d2:	11 e0       	ldi	r17, 0x01	; 1
  d4:	a0 e0       	ldi	r26, 0x00	; 0
  d6:	b1 e0       	ldi	r27, 0x01	; 1
  d8:	ee ef       	ldi	r30, 0xFE	; 254
  da:	fe e0       	ldi	r31, 0x0E	; 14
  dc:	00 e0       	ldi	r16, 0x00	; 0
  de:	0b bf       	out	0x3b, r16	; 59
  e0:	02 c0       	rjmp	.+4      	; 0xe6 <__do_copy_data+0x14>
  e2:	07 90       	elpm	r0, Z+
  e4:	0d 92       	st	X+, r0
  e6:	a6 37       	cpi	r26, 0x76	; 118
  e8:	b1 07       	cpc	r27, r17
  ea:	d9 f7       	brne	.-10     	; 0xe2 <__do_copy_data+0x10>

000000ec <__do_clear_bss>:
  ec:	21 e0       	ldi	r18, 0x01	; 1
  ee:	a6 e7       	ldi	r26, 0x76	; 118
  f0:	b1 e0       	ldi	r27, 0x01	; 1
  f2:	01 c0       	rjmp	.+2      	; 0xf6 <.do_clear_bss_start>

000000f4 <.do_clear_bss_loop>:
  f4:	1d 92       	st	X+, r1

000000f6 <.do_clear_bss_start>:
  f6:	a2 39       	cpi	r26, 0x92	; 146
  f8:	b2 07       	cpc	r27, r18
  fa:	e1 f7       	brne	.-8      	; 0xf4 <.do_clear_bss_loop>

000000fc <__do_global_ctors>:
  fc:	10 e0       	ldi	r17, 0x00	; 0
  fe:	c3 e6       	ldi	r28, 0x63	; 99
 100:	d0 e0       	ldi	r29, 0x00	; 0
 102:	03 c0       	rjmp	.+6      	; 0x10a <__do_global_ctors+0xe>
 104:	21 97       	sbiw	r28, 0x01	; 1
 106:	fe 01       	movw	r30, r28
 108:	ef d6       	rcall	.+3550   	; 0xee8 <__tablejump2__>
 10a:	c2 36       	cpi	r28, 0x62	; 98
 10c:	d1 07       	cpc	r29, r17
 10e:	d1 f7       	brne	.-12     	; 0x104 <__do_global_ctors+0x8>
 110:	14 d0       	rcall	.+40     	; 0x13a <main>
 112:	f3 c6       	rjmp	.+3558   	; 0xefa <_exit>

00000114 <__bad_interrupt>:
 114:	75 cf       	rjmp	.-278    	; 0x0 <__vectors>

00000116 <_Z41__static_initialization_and_destruction_0ii>:
			lcd.setLine(1, 1);
			lcd.print("Pause");
		}
	}
	
 116:	01 97       	sbiw	r24, 0x01	; 1
 118:	79 f4       	brne	.+30     	; 0x138 <_Z41__static_initialization_and_destruction_0ii+0x22>
 11a:	6f 3f       	cpi	r22, 0xFF	; 255
 11c:	7f 4f       	sbci	r23, 0xFF	; 255
 11e:	61 f4       	brne	.+24     	; 0x138 <_Z41__static_initialization_and_destruction_0ii+0x22>
private:
	unsigned int m_SwitchPort;
	unsigned int m_SwitchMode;

public:
	SW (int switchPort, int switchMode) { m_SwitchPort = switchPort; m_SwitchMode = switchMode; }
 120:	e6 e8       	ldi	r30, 0x86	; 134
 122:	f1 e0       	ldi	r31, 0x01	; 1
 124:	11 82       	std	Z+1, r1	; 0x01
 126:	10 82       	st	Z, r1
 128:	13 82       	std	Z+3, r1	; 0x03
 12a:	12 82       	std	Z+2, r1	; 0x02
	unsigned int m_LCDPort;
	unsigned int m_ExtendPort;
	bool m_isDataLong;

public:
	LCD (int LCDPort) { m_LCDPort = LCDPort; }
 12c:	85 e0       	ldi	r24, 0x05	; 5
 12e:	90 e0       	ldi	r25, 0x00	; 0
 130:	90 93 82 01 	sts	0x0182, r25	; 0x800182 <lcd+0x1>
 134:	80 93 81 01 	sts	0x0181, r24	; 0x800181 <lcd>
 138:	08 95       	ret

0000013a <main>:
-------------   MAIN START   ---------------
//========================================*/

int main (void)
{
    beginPort(A, IN);
 13a:	60 e0       	ldi	r22, 0x00	; 0
 13c:	80 e0       	ldi	r24, 0x00	; 0
 13e:	90 e0       	ldi	r25, 0x00	; 0
 140:	83 d5       	rcall	.+2822   	; 0xc48 <_ZN3MCU7Setting9beginPortEib>
	beginPort(F, OUT);
 142:	61 e0       	ldi	r22, 0x01	; 1
 144:	85 e0       	ldi	r24, 0x05	; 5
 146:	90 e0       	ldi	r25, 0x00	; 0
 148:	7f d5       	rcall	.+2814   	; 0xc48 <_ZN3MCU7Setting9beginPortEib>
	
	beginTimer(2, OVF);
 14a:	64 e0       	ldi	r22, 0x04	; 4
 14c:	70 e0       	ldi	r23, 0x00	; 0
 14e:	82 e0       	ldi	r24, 0x02	; 2
 150:	90 e0       	ldi	r25, 0x00	; 0
 152:	9f d5       	rcall	.+2878   	; 0xc92 <_ZN3MCU7Setting10beginTimerEii>
	beginTimer(1, COMP);
 154:	63 e0       	ldi	r22, 0x03	; 3
 156:	70 e0       	ldi	r23, 0x00	; 0
 158:	81 e0       	ldi	r24, 0x01	; 1
 15a:	90 e0       	ldi	r25, 0x00	; 0
	
	lcd.init();
 15c:	9a d5       	rcall	.+2868   	; 0xc92 <_ZN3MCU7Setting10beginTimerEii>
 15e:	81 e8       	ldi	r24, 0x81	; 129
 160:	91 e0       	ldi	r25, 0x01	; 1
 162:	3d d5       	rcall	.+2682   	; 0xbde <_ZN3LCD4initEv>
	
	sei();
 164:	78 94       	sei
	#else
		//round up by default
		__ticks_dc = (uint32_t)(ceil(fabs(__tmp)));
	#endif

	__builtin_avr_delay_cycles(__ticks_dc);
 166:	8f e3       	ldi	r24, 0x3F	; 63
 168:	9f e1       	ldi	r25, 0x1F	; 31
 16a:	01 97       	sbiw	r24, 0x01	; 1
 16c:	f1 f7       	brne	.-4      	; 0x16a <main+0x30>
 16e:	00 c0       	rjmp	.+0      	; 0x170 <main+0x36>
 170:	00 00       	nop
	
    while (true) 
    {
		_delay_ms(2);
		
		if (Title == ON)
 172:	80 91 01 01 	lds	r24, 0x0101	; 0x800101 <Title>
 176:	88 23       	and	r24, r24
 178:	09 f1       	breq	.+66     	; 0x1bc <main+0x82>
		{
			lcd.setLine(1, 2);
 17a:	42 e0       	ldi	r20, 0x02	; 2
 17c:	50 e0       	ldi	r21, 0x00	; 0
 17e:	61 e0       	ldi	r22, 0x01	; 1
 180:	70 e0       	ldi	r23, 0x00	; 0
 182:	81 e8       	ldi	r24, 0x81	; 129
 184:	91 e0       	ldi	r25, 0x01	; 1
			lcd.print("Counter System");
 186:	bf d4       	rcall	.+2430   	; 0xb06 <_ZN3LCD7setLineEii>
 188:	62 e0       	ldi	r22, 0x02	; 2
 18a:	71 e0       	ldi	r23, 0x01	; 1
 18c:	81 e8       	ldi	r24, 0x81	; 129
 18e:	91 e0       	ldi	r25, 0x01	; 1
			lcd.setLine(2, 11);
 190:	a7 d4       	rcall	.+2382   	; 0xae0 <_ZN3LCD5printEPKc>
 192:	4b e0       	ldi	r20, 0x0B	; 11
 194:	50 e0       	ldi	r21, 0x00	; 0
 196:	62 e0       	ldi	r22, 0x02	; 2
 198:	70 e0       	ldi	r23, 0x00	; 0
 19a:	81 e8       	ldi	r24, 0x81	; 129
 19c:	91 e0       	ldi	r25, 0x01	; 1
			lcd.print("by CLJ");
 19e:	b3 d4       	rcall	.+2406   	; 0xb06 <_ZN3LCD7setLineEii>
 1a0:	61 e1       	ldi	r22, 0x11	; 17
 1a2:	71 e0       	ldi	r23, 0x01	; 1
 1a4:	81 e8       	ldi	r24, 0x81	; 129
 1a6:	91 e0       	ldi	r25, 0x01	; 1
 1a8:	9b d4       	rcall	.+2358   	; 0xae0 <_ZN3LCD5printEPKc>
 1aa:	9f ef       	ldi	r25, 0xFF	; 255
 1ac:	25 ea       	ldi	r18, 0xA5	; 165
 1ae:	8e e0       	ldi	r24, 0x0E	; 14
 1b0:	91 50       	subi	r25, 0x01	; 1
 1b2:	20 40       	sbci	r18, 0x00	; 0
 1b4:	80 40       	sbci	r24, 0x00	; 0
 1b6:	e1 f7       	brne	.-8      	; 0x1b0 <main+0x76>
 1b8:	00 c0       	rjmp	.+0      	; 0x1ba <main+0x80>
 1ba:	00 00       	nop
 1bc:	8f e3       	ldi	r24, 0x3F	; 63
 1be:	9f e1       	ldi	r25, 0x1F	; 31
 1c0:	01 97       	sbiw	r24, 0x01	; 1
 1c2:	f1 f7       	brne	.-4      	; 0x1c0 <main+0x86>
 1c4:	00 c0       	rjmp	.+0      	; 0x1c6 <main+0x8c>
 1c6:	00 00       	nop
 1c8:	ce cf       	rjmp	.-100    	; 0x166 <main+0x2c>

000001ca <__vector_10>:
--------------   MAIN END   ----------------
//========================================*/


ISR(TIMER2_OVF_vect)
{
 1ca:	1f 92       	push	r1
 1cc:	0f 92       	push	r0
 1ce:	0f b6       	in	r0, 0x3f	; 63
 1d0:	0f 92       	push	r0
 1d2:	11 24       	eor	r1, r1
 1d4:	0b b6       	in	r0, 0x3b	; 59
 1d6:	0f 92       	push	r0
 1d8:	2f 93       	push	r18
 1da:	3f 93       	push	r19
 1dc:	4f 93       	push	r20
 1de:	5f 93       	push	r21
 1e0:	6f 93       	push	r22
 1e2:	7f 93       	push	r23
 1e4:	8f 93       	push	r24
 1e6:	9f 93       	push	r25
 1e8:	af 93       	push	r26
 1ea:	bf 93       	push	r27
 1ec:	cf 93       	push	r28
 1ee:	ef 93       	push	r30
 1f0:	ff 93       	push	r31
	
	sw.init();
 1f2:	86 e8       	ldi	r24, 0x86	; 134
 1f4:	91 e0       	ldi	r25, 0x01	; 1
 1f6:	f1 d5       	rcall	.+3042   	; 0xdda <_ZN2SW4initEv>
	
	if (sw.result != SW_OFF)
 1f8:	80 91 8e 01 	lds	r24, 0x018E	; 0x80018e <sw+0x8>
 1fc:	90 91 8f 01 	lds	r25, 0x018F	; 0x80018f <sw+0x9>
 200:	89 2b       	or	r24, r25
 202:	09 f4       	brne	.+2      	; 0x206 <__vector_10+0x3c>
 204:	2b c2       	rjmp	.+1110   	; 0x65c <__LOCK_REGION_LENGTH__+0x25c>
	{
		switch (sw.result)
 206:	80 91 8e 01 	lds	r24, 0x018E	; 0x80018e <sw+0x8>
 20a:	90 91 8f 01 	lds	r25, 0x018F	; 0x80018f <sw+0x9>
 20e:	88 30       	cpi	r24, 0x08	; 8
 210:	91 05       	cpc	r25, r1
 212:	09 f4       	brne	.+2      	; 0x216 <__vector_10+0x4c>
 214:	c8 c0       	rjmp	.+400    	; 0x3a6 <__vector_10+0x1dc>
 216:	60 f4       	brcc	.+24     	; 0x230 <__vector_10+0x66>
 218:	82 30       	cpi	r24, 0x02	; 2
 21a:	91 05       	cpc	r25, r1
 21c:	09 f4       	brne	.+2      	; 0x220 <__vector_10+0x56>
 21e:	70 c0       	rjmp	.+224    	; 0x300 <__vector_10+0x136>
 220:	84 30       	cpi	r24, 0x04	; 4
 222:	91 05       	cpc	r25, r1
 224:	09 f4       	brne	.+2      	; 0x228 <__vector_10+0x5e>
 226:	70 c0       	rjmp	.+224    	; 0x308 <__vector_10+0x13e>
 228:	01 97       	sbiw	r24, 0x01	; 1
 22a:	09 f0       	breq	.+2      	; 0x22e <__vector_10+0x64>
 22c:	17 c2       	rjmp	.+1070   	; 0x65c <__LOCK_REGION_LENGTH__+0x25c>
 22e:	12 c0       	rjmp	.+36     	; 0x254 <__vector_10+0x8a>
 230:	80 32       	cpi	r24, 0x20	; 32
 232:	91 05       	cpc	r25, r1
 234:	09 f4       	brne	.+2      	; 0x238 <__vector_10+0x6e>
 236:	32 c1       	rjmp	.+612    	; 0x49c <__LOCK_REGION_LENGTH__+0x9c>
 238:	20 f4       	brcc	.+8      	; 0x242 <__vector_10+0x78>
 23a:	40 97       	sbiw	r24, 0x10	; 16
 23c:	09 f4       	brne	.+2      	; 0x240 <__vector_10+0x76>
 23e:	e3 c0       	rjmp	.+454    	; 0x406 <__LOCK_REGION_LENGTH__+0x6>
 240:	0d c2       	rjmp	.+1050   	; 0x65c <__LOCK_REGION_LENGTH__+0x25c>
 242:	80 34       	cpi	r24, 0x40	; 64
 244:	91 05       	cpc	r25, r1
 246:	09 f4       	brne	.+2      	; 0x24a <__vector_10+0x80>
 248:	74 c1       	rjmp	.+744    	; 0x532 <__LOCK_REGION_LENGTH__+0x132>
 24a:	80 38       	cpi	r24, 0x80	; 128
 24c:	91 05       	cpc	r25, r1
 24e:	09 f4       	brne	.+2      	; 0x252 <__vector_10+0x88>
 250:	bb c1       	rjmp	.+886    	; 0x5c8 <__LOCK_REGION_LENGTH__+0x1c8>
 252:	04 c2       	rjmp	.+1032   	; 0x65c <__LOCK_REGION_LENGTH__+0x25c>
		{
			case SW_0:				// Start and Restart when Time's set
				Title = OFF;
 254:	10 92 01 01 	sts	0x0101, r1	; 0x800101 <Title>
				
				if (Set == ON && Setted == OFF)
 258:	80 91 7f 01 	lds	r24, 0x017F	; 0x80017f <Set>
 25c:	88 23       	and	r24, r24
 25e:	d9 f0       	breq	.+54     	; 0x296 <__vector_10+0xcc>
 260:	90 91 7e 01 	lds	r25, 0x017E	; 0x80017e <Setted>
 264:	91 11       	cpse	r25, r1
 266:	17 c0       	rjmp	.+46     	; 0x296 <__vector_10+0xcc>
				{
					lcd.clear(ALL);
 268:	60 e0       	ldi	r22, 0x00	; 0
 26a:	70 e0       	ldi	r23, 0x00	; 0
 26c:	81 e8       	ldi	r24, 0x81	; 129
 26e:	91 e0       	ldi	r25, 0x01	; 1
 270:	80 d4       	rcall	.+2304   	; 0xb72 <_ZN3LCD5clearEi>
					
					lcd.setLine(1, 1);
 272:	41 e0       	ldi	r20, 0x01	; 1
 274:	50 e0       	ldi	r21, 0x00	; 0
 276:	61 e0       	ldi	r22, 0x01	; 1
 278:	70 e0       	ldi	r23, 0x00	; 0
 27a:	81 e8       	ldi	r24, 0x81	; 129
 27c:	91 e0       	ldi	r25, 0x01	; 1
 27e:	43 d4       	rcall	.+2182   	; 0xb06 <_ZN3LCD7setLineEii>
					lcd.print("Counting");
 280:	68 e1       	ldi	r22, 0x18	; 24
 282:	71 e0       	ldi	r23, 0x01	; 1
 284:	81 e8       	ldi	r24, 0x81	; 129
 286:	91 e0       	ldi	r25, 0x01	; 1
 288:	2b d4       	rcall	.+2134   	; 0xae0 <_ZN3LCD5printEPKc>
					
					Start = ON;
 28a:	81 e0       	ldi	r24, 0x01	; 1
 28c:	80 93 80 01 	sts	0x0180, r24	; 0x800180 <Start>
					Pause = OFF;
 290:	10 92 00 01 	sts	0x0100, r1	; 0x800100 <__DATA_REGION_ORIGIN__>
 294:	e3 c1       	rjmp	.+966    	; 0x65c <__LOCK_REGION_LENGTH__+0x25c>
				}
				
				else if (Set == OFF && Setted == OFF)
 296:	81 11       	cpse	r24, r1
 298:	e1 c1       	rjmp	.+962    	; 0x65c <__LOCK_REGION_LENGTH__+0x25c>
 29a:	80 91 7e 01 	lds	r24, 0x017E	; 0x80017e <Setted>
 29e:	81 11       	cpse	r24, r1
 2a0:	dd c1       	rjmp	.+954    	; 0x65c <__LOCK_REGION_LENGTH__+0x25c>
				{
					lcd.clear(ALL);
 2a2:	60 e0       	ldi	r22, 0x00	; 0
 2a4:	70 e0       	ldi	r23, 0x00	; 0
 2a6:	81 e8       	ldi	r24, 0x81	; 129
 2a8:	91 e0       	ldi	r25, 0x01	; 1
 2aa:	63 d4       	rcall	.+2246   	; 0xb72 <_ZN3LCD5clearEi>
					
					lcd.setLine(1, 1);
 2ac:	41 e0       	ldi	r20, 0x01	; 1
 2ae:	50 e0       	ldi	r21, 0x00	; 0
 2b0:	61 e0       	ldi	r22, 0x01	; 1
 2b2:	70 e0       	ldi	r23, 0x00	; 0
 2b4:	81 e8       	ldi	r24, 0x81	; 129
 2b6:	91 e0       	ldi	r25, 0x01	; 1
					lcd.print("Please Push SW 3");
 2b8:	26 d4       	rcall	.+2124   	; 0xb06 <_ZN3LCD7setLineEii>
 2ba:	61 e2       	ldi	r22, 0x21	; 33
 2bc:	71 e0       	ldi	r23, 0x01	; 1
 2be:	81 e8       	ldi	r24, 0x81	; 129
 2c0:	91 e0       	ldi	r25, 0x01	; 1
					lcd.setLine(2, 2);
 2c2:	0e d4       	rcall	.+2076   	; 0xae0 <_ZN3LCD5printEPKc>
 2c4:	42 e0       	ldi	r20, 0x02	; 2
 2c6:	50 e0       	ldi	r21, 0x00	; 0
 2c8:	62 e0       	ldi	r22, 0x02	; 2
 2ca:	70 e0       	ldi	r23, 0x00	; 0
 2cc:	81 e8       	ldi	r24, 0x81	; 129
 2ce:	91 e0       	ldi	r25, 0x01	; 1
					lcd.print("to Set the Time");
 2d0:	1a d4       	rcall	.+2100   	; 0xb06 <_ZN3LCD7setLineEii>
 2d2:	62 e3       	ldi	r22, 0x32	; 50
 2d4:	71 e0       	ldi	r23, 0x01	; 1
 2d6:	81 e8       	ldi	r24, 0x81	; 129
 2d8:	91 e0       	ldi	r25, 0x01	; 1
 2da:	02 d4       	rcall	.+2052   	; 0xae0 <_ZN3LCD5printEPKc>
 2dc:	2f ef       	ldi	r18, 0xFF	; 255
 2de:	8f e4       	ldi	r24, 0x4F	; 79
 2e0:	93 ec       	ldi	r25, 0xC3	; 195
 2e2:	21 50       	subi	r18, 0x01	; 1
 2e4:	80 40       	sbci	r24, 0x00	; 0
 2e6:	90 40       	sbci	r25, 0x00	; 0
 2e8:	e1 f7       	brne	.-8      	; 0x2e2 <__vector_10+0x118>
 2ea:	00 c0       	rjmp	.+0      	; 0x2ec <__vector_10+0x122>
					
					_delay_ms(4000);
					
					lcd.clear(ALL);
 2ec:	00 00       	nop
 2ee:	60 e0       	ldi	r22, 0x00	; 0
 2f0:	70 e0       	ldi	r23, 0x00	; 0
 2f2:	81 e8       	ldi	r24, 0x81	; 129
 2f4:	91 e0       	ldi	r25, 0x01	; 1
 2f6:	3d d4       	rcall	.+2170   	; 0xb72 <_ZN3LCD5clearEi>
					
					Title = ON;
 2f8:	81 e0       	ldi	r24, 0x01	; 1
 2fa:	80 93 01 01 	sts	0x0101, r24	; 0x800101 <Title>
 2fe:	ae c1       	rjmp	.+860    	; 0x65c <__LOCK_REGION_LENGTH__+0x25c>
				}
				
				break;
				
			case SW_1:				// Pause when Time's started
				Pause = ON;
 300:	81 e0       	ldi	r24, 0x01	; 1
 302:	80 93 00 01 	sts	0x0100, r24	; 0x800100 <__DATA_REGION_ORIGIN__>
				break;
 306:	aa c1       	rjmp	.+852    	; 0x65c <__LOCK_REGION_LENGTH__+0x25c>
				
			case SW_2:				// Go to Setting when Time's not set
				Title = OFF;
 308:	10 92 01 01 	sts	0x0101, r1	; 0x800101 <Title>
				
				if (Set == OFF && Setted == OFF)
 30c:	80 91 7f 01 	lds	r24, 0x017F	; 0x80017f <Set>
 310:	81 11       	cpse	r24, r1
 312:	a4 c1       	rjmp	.+840    	; 0x65c <__LOCK_REGION_LENGTH__+0x25c>
 314:	80 91 7e 01 	lds	r24, 0x017E	; 0x80017e <Setted>
 318:	81 11       	cpse	r24, r1
				{
					Setted = ON;
 31a:	a0 c1       	rjmp	.+832    	; 0x65c <__LOCK_REGION_LENGTH__+0x25c>
 31c:	81 e0       	ldi	r24, 0x01	; 1
 31e:	80 93 7e 01 	sts	0x017E, r24	; 0x80017e <Setted>
					
					lcd.clear(ALL);
 322:	60 e0       	ldi	r22, 0x00	; 0
 324:	70 e0       	ldi	r23, 0x00	; 0
 326:	81 e8       	ldi	r24, 0x81	; 129
 328:	91 e0       	ldi	r25, 0x01	; 1
					
					lcd.setLine(1, 1);
 32a:	23 d4       	rcall	.+2118   	; 0xb72 <_ZN3LCD5clearEi>
 32c:	41 e0       	ldi	r20, 0x01	; 1
 32e:	50 e0       	ldi	r21, 0x00	; 0
 330:	61 e0       	ldi	r22, 0x01	; 1
 332:	70 e0       	ldi	r23, 0x00	; 0
 334:	81 e8       	ldi	r24, 0x81	; 129
 336:	91 e0       	ldi	r25, 0x01	; 1
					lcd.print("Set Time");
 338:	e6 d3       	rcall	.+1996   	; 0xb06 <_ZN3LCD7setLineEii>
 33a:	62 e4       	ldi	r22, 0x42	; 66
 33c:	71 e0       	ldi	r23, 0x01	; 1
 33e:	81 e8       	ldi	r24, 0x81	; 129
 340:	91 e0       	ldi	r25, 0x01	; 1
					
					lcd.setLine(2, 12);
 342:	ce d3       	rcall	.+1948   	; 0xae0 <_ZN3LCD5printEPKc>
 344:	4c e0       	ldi	r20, 0x0C	; 12
 346:	50 e0       	ldi	r21, 0x00	; 0
 348:	62 e0       	ldi	r22, 0x02	; 2
 34a:	70 e0       	ldi	r23, 0x00	; 0
 34c:	81 e8       	ldi	r24, 0x81	; 129
 34e:	91 e0       	ldi	r25, 0x01	; 1
					lcd.exportData(ASKII(i));
 350:	da d3       	rcall	.+1972   	; 0xb06 <_ZN3LCD7setLineEii>
 352:	80 91 7c 01 	lds	r24, 0x017C	; 0x80017c <i>
 356:	90 91 7d 01 	lds	r25, 0x017D	; 0x80017d <i+0x1>
 35a:	6e d4       	rcall	.+2268   	; 0xc38 <_ZN3MCU8Features5ASKIIEi>
 35c:	bc 01       	movw	r22, r24
 35e:	81 e8       	ldi	r24, 0x81	; 129
 360:	91 e0       	ldi	r25, 0x01	; 1
					lcd.exportData(ASKII(j));
 362:	28 d3       	rcall	.+1616   	; 0x9b4 <_ZN3LCD10exportDataEi>
 364:	80 91 7a 01 	lds	r24, 0x017A	; 0x80017a <j>
 368:	90 91 7b 01 	lds	r25, 0x017B	; 0x80017b <j+0x1>
 36c:	65 d4       	rcall	.+2250   	; 0xc38 <_ZN3MCU8Features5ASKIIEi>
 36e:	bc 01       	movw	r22, r24
 370:	81 e8       	ldi	r24, 0x81	; 129
 372:	91 e0       	ldi	r25, 0x01	; 1
					lcd.print(":");
 374:	1f d3       	rcall	.+1598   	; 0x9b4 <_ZN3LCD10exportDataEi>
 376:	6b e4       	ldi	r22, 0x4B	; 75
 378:	71 e0       	ldi	r23, 0x01	; 1
 37a:	81 e8       	ldi	r24, 0x81	; 129
					lcd.exportData(ASKII(k));
 37c:	91 e0       	ldi	r25, 0x01	; 1
 37e:	b0 d3       	rcall	.+1888   	; 0xae0 <_ZN3LCD5printEPKc>
 380:	80 91 78 01 	lds	r24, 0x0178	; 0x800178 <k>
 384:	90 91 79 01 	lds	r25, 0x0179	; 0x800179 <k+0x1>
 388:	57 d4       	rcall	.+2222   	; 0xc38 <_ZN3MCU8Features5ASKIIEi>
 38a:	bc 01       	movw	r22, r24
 38c:	81 e8       	ldi	r24, 0x81	; 129
 38e:	91 e0       	ldi	r25, 0x01	; 1
 390:	11 d3       	rcall	.+1570   	; 0x9b4 <_ZN3LCD10exportDataEi>
					lcd.exportData(ASKII(l));
 392:	80 91 76 01 	lds	r24, 0x0176	; 0x800176 <__data_end>
 396:	90 91 77 01 	lds	r25, 0x0177	; 0x800177 <__data_end+0x1>
 39a:	4e d4       	rcall	.+2204   	; 0xc38 <_ZN3MCU8Features5ASKIIEi>
 39c:	bc 01       	movw	r22, r24
 39e:	81 e8       	ldi	r24, 0x81	; 129
 3a0:	91 e0       	ldi	r25, 0x01	; 1
 3a2:	08 d3       	rcall	.+1552   	; 0x9b4 <_ZN3LCD10exportDataEi>
 3a4:	5b c1       	rjmp	.+694    	; 0x65c <__LOCK_REGION_LENGTH__+0x25c>
 3a6:	80 91 7f 01 	lds	r24, 0x017F	; 0x80017f <Set>
				}
				
				break;
			
			case SW_3:				// Set the Time when Time's not set and it's in Setting
				if (Set == OFF && Setted == ON)
 3aa:	81 11       	cpse	r24, r1
 3ac:	57 c1       	rjmp	.+686    	; 0x65c <__LOCK_REGION_LENGTH__+0x25c>
 3ae:	80 91 7e 01 	lds	r24, 0x017E	; 0x80017e <Setted>
 3b2:	88 23       	and	r24, r24
 3b4:	09 f4       	brne	.+2      	; 0x3b8 <__vector_10+0x1ee>
				{
					Set = ON;
 3b6:	52 c1       	rjmp	.+676    	; 0x65c <__LOCK_REGION_LENGTH__+0x25c>
 3b8:	c1 e0       	ldi	r28, 0x01	; 1
 3ba:	c0 93 7f 01 	sts	0x017F, r28	; 0x80017f <Set>
					Setted = OFF;
 3be:	10 92 7e 01 	sts	0x017E, r1	; 0x80017e <Setted>
					
					lcd.clear(1);
 3c2:	61 e0       	ldi	r22, 0x01	; 1
 3c4:	70 e0       	ldi	r23, 0x00	; 0
 3c6:	81 e8       	ldi	r24, 0x81	; 129
 3c8:	91 e0       	ldi	r25, 0x01	; 1
 3ca:	d3 d3       	rcall	.+1958   	; 0xb72 <_ZN3LCD5clearEi>
					
					lcd.setLine(1, 1);
 3cc:	41 e0       	ldi	r20, 0x01	; 1
 3ce:	50 e0       	ldi	r21, 0x00	; 0
 3d0:	61 e0       	ldi	r22, 0x01	; 1
 3d2:	70 e0       	ldi	r23, 0x00	; 0
 3d4:	81 e8       	ldi	r24, 0x81	; 129
 3d6:	91 e0       	ldi	r25, 0x01	; 1
 3d8:	96 d3       	rcall	.+1836   	; 0xb06 <_ZN3LCD7setLineEii>
					lcd.print("Set Complete");
 3da:	6d e4       	ldi	r22, 0x4D	; 77
 3dc:	71 e0       	ldi	r23, 0x01	; 1
 3de:	81 e8       	ldi	r24, 0x81	; 129
 3e0:	91 e0       	ldi	r25, 0x01	; 1
 3e2:	7e d3       	rcall	.+1788   	; 0xae0 <_ZN3LCD5printEPKc>
 3e4:	2f ef       	ldi	r18, 0xFF	; 255
 3e6:	87 ea       	ldi	r24, 0xA7	; 167
 3e8:	91 e6       	ldi	r25, 0x61	; 97
 3ea:	21 50       	subi	r18, 0x01	; 1
 3ec:	80 40       	sbci	r24, 0x00	; 0
 3ee:	90 40       	sbci	r25, 0x00	; 0
 3f0:	e1 f7       	brne	.-8      	; 0x3ea <__vector_10+0x220>
 3f2:	00 c0       	rjmp	.+0      	; 0x3f4 <__vector_10+0x22a>
 3f4:	00 00       	nop
 3f6:	60 e0       	ldi	r22, 0x00	; 0
					
					_delay_ms(2000);
					
					lcd.clear(ALL);
 3f8:	70 e0       	ldi	r23, 0x00	; 0
 3fa:	81 e8       	ldi	r24, 0x81	; 129
 3fc:	91 e0       	ldi	r25, 0x01	; 1
 3fe:	b9 d3       	rcall	.+1906   	; 0xb72 <_ZN3LCD5clearEi>
 400:	c0 93 01 01 	sts	0x0101, r28	; 0x800101 <Title>
					
					Title = ON;
 404:	2b c1       	rjmp	.+598    	; 0x65c <__LOCK_REGION_LENGTH__+0x25c>
 406:	80 91 7f 01 	lds	r24, 0x017F	; 0x80017f <Set>
				}
				
				break;
			
			case SW_4:				// Control the Time when it's in Setting
				if (Set == OFF && Setted == ON)
 40a:	81 11       	cpse	r24, r1
 40c:	27 c1       	rjmp	.+590    	; 0x65c <__LOCK_REGION_LENGTH__+0x25c>
 40e:	80 91 7e 01 	lds	r24, 0x017E	; 0x80017e <Setted>
 412:	88 23       	and	r24, r24
 414:	09 f4       	brne	.+2      	; 0x418 <__LOCK_REGION_LENGTH__+0x18>
 416:	22 c1       	rjmp	.+580    	; 0x65c <__LOCK_REGION_LENGTH__+0x25c>
 418:	80 91 7c 01 	lds	r24, 0x017C	; 0x80017c <i>
				{
					if (i != 5)
 41c:	90 91 7d 01 	lds	r25, 0x017D	; 0x80017d <i+0x1>
 420:	85 30       	cpi	r24, 0x05	; 5
 422:	91 05       	cpc	r25, r1
					{
						i++;
 424:	31 f0       	breq	.+12     	; 0x432 <__LOCK_REGION_LENGTH__+0x32>
 426:	01 96       	adiw	r24, 0x01	; 1
 428:	90 93 7d 01 	sts	0x017D, r25	; 0x80017d <i+0x1>
 42c:	80 93 7c 01 	sts	0x017C, r24	; 0x80017c <i>
					}
					
					else
					{
						i = 0;
 430:	04 c0       	rjmp	.+8      	; 0x43a <__LOCK_REGION_LENGTH__+0x3a>
 432:	10 92 7d 01 	sts	0x017D, r1	; 0x80017d <i+0x1>
					}
					
					lcd.setLine(2, 12);
 436:	10 92 7c 01 	sts	0x017C, r1	; 0x80017c <i>
 43a:	4c e0       	ldi	r20, 0x0C	; 12
 43c:	50 e0       	ldi	r21, 0x00	; 0
 43e:	62 e0       	ldi	r22, 0x02	; 2
 440:	70 e0       	ldi	r23, 0x00	; 0
					lcd.exportData(ASKII(i));
 442:	81 e8       	ldi	r24, 0x81	; 129
 444:	91 e0       	ldi	r25, 0x01	; 1
 446:	5f d3       	rcall	.+1726   	; 0xb06 <_ZN3LCD7setLineEii>
 448:	80 91 7c 01 	lds	r24, 0x017C	; 0x80017c <i>
 44c:	90 91 7d 01 	lds	r25, 0x017D	; 0x80017d <i+0x1>
 450:	f3 d3       	rcall	.+2022   	; 0xc38 <_ZN3MCU8Features5ASKIIEi>
 452:	bc 01       	movw	r22, r24
					lcd.exportData(ASKII(j));
 454:	81 e8       	ldi	r24, 0x81	; 129
 456:	91 e0       	ldi	r25, 0x01	; 1
 458:	ad d2       	rcall	.+1370   	; 0x9b4 <_ZN3LCD10exportDataEi>
 45a:	80 91 7a 01 	lds	r24, 0x017A	; 0x80017a <j>
 45e:	90 91 7b 01 	lds	r25, 0x017B	; 0x80017b <j+0x1>
 462:	ea d3       	rcall	.+2004   	; 0xc38 <_ZN3MCU8Features5ASKIIEi>
 464:	bc 01       	movw	r22, r24
 466:	81 e8       	ldi	r24, 0x81	; 129
					lcd.print(":");
 468:	91 e0       	ldi	r25, 0x01	; 1
 46a:	a4 d2       	rcall	.+1352   	; 0x9b4 <_ZN3LCD10exportDataEi>
 46c:	6b e4       	ldi	r22, 0x4B	; 75
 46e:	71 e0       	ldi	r23, 0x01	; 1
 470:	81 e8       	ldi	r24, 0x81	; 129
 472:	91 e0       	ldi	r25, 0x01	; 1
					lcd.exportData(ASKII(k));
 474:	35 d3       	rcall	.+1642   	; 0xae0 <_ZN3LCD5printEPKc>
 476:	80 91 78 01 	lds	r24, 0x0178	; 0x800178 <k>
 47a:	90 91 79 01 	lds	r25, 0x0179	; 0x800179 <k+0x1>
 47e:	dc d3       	rcall	.+1976   	; 0xc38 <_ZN3MCU8Features5ASKIIEi>
 480:	bc 01       	movw	r22, r24
 482:	81 e8       	ldi	r24, 0x81	; 129
 484:	91 e0       	ldi	r25, 0x01	; 1
 486:	96 d2       	rcall	.+1324   	; 0x9b4 <_ZN3LCD10exportDataEi>
 488:	80 91 76 01 	lds	r24, 0x0176	; 0x800176 <__data_end>
					lcd.exportData(ASKII(l));
 48c:	90 91 77 01 	lds	r25, 0x0177	; 0x800177 <__data_end+0x1>
 490:	d3 d3       	rcall	.+1958   	; 0xc38 <_ZN3MCU8Features5ASKIIEi>
 492:	bc 01       	movw	r22, r24
 494:	81 e8       	ldi	r24, 0x81	; 129
 496:	91 e0       	ldi	r25, 0x01	; 1
 498:	8d d2       	rcall	.+1306   	; 0x9b4 <_ZN3LCD10exportDataEi>
 49a:	e0 c0       	rjmp	.+448    	; 0x65c <__LOCK_REGION_LENGTH__+0x25c>
 49c:	80 91 7f 01 	lds	r24, 0x017F	; 0x80017f <Set>
				}
				
				break;
				
			case SW_5:
				if (Set == OFF && Setted == ON)
 4a0:	81 11       	cpse	r24, r1
 4a2:	dc c0       	rjmp	.+440    	; 0x65c <__LOCK_REGION_LENGTH__+0x25c>
 4a4:	80 91 7e 01 	lds	r24, 0x017E	; 0x80017e <Setted>
 4a8:	88 23       	and	r24, r24
 4aa:	09 f4       	brne	.+2      	; 0x4ae <__LOCK_REGION_LENGTH__+0xae>
 4ac:	d7 c0       	rjmp	.+430    	; 0x65c <__LOCK_REGION_LENGTH__+0x25c>
				{
					if (j != 9)
 4ae:	80 91 7a 01 	lds	r24, 0x017A	; 0x80017a <j>
 4b2:	90 91 7b 01 	lds	r25, 0x017B	; 0x80017b <j+0x1>
 4b6:	89 30       	cpi	r24, 0x09	; 9
					{
						j++;
 4b8:	91 05       	cpc	r25, r1
 4ba:	31 f0       	breq	.+12     	; 0x4c8 <__LOCK_REGION_LENGTH__+0xc8>
 4bc:	01 96       	adiw	r24, 0x01	; 1
 4be:	90 93 7b 01 	sts	0x017B, r25	; 0x80017b <j+0x1>
					}
					
					else
					{
						j = 0;
 4c2:	80 93 7a 01 	sts	0x017A, r24	; 0x80017a <j>
 4c6:	04 c0       	rjmp	.+8      	; 0x4d0 <__LOCK_REGION_LENGTH__+0xd0>
					}
					
					lcd.setLine(2, 12);
 4c8:	10 92 7b 01 	sts	0x017B, r1	; 0x80017b <j+0x1>
 4cc:	10 92 7a 01 	sts	0x017A, r1	; 0x80017a <j>
 4d0:	4c e0       	ldi	r20, 0x0C	; 12
 4d2:	50 e0       	ldi	r21, 0x00	; 0
					lcd.exportData(ASKII(i));
 4d4:	62 e0       	ldi	r22, 0x02	; 2
 4d6:	70 e0       	ldi	r23, 0x00	; 0
 4d8:	81 e8       	ldi	r24, 0x81	; 129
 4da:	91 e0       	ldi	r25, 0x01	; 1
 4dc:	14 d3       	rcall	.+1576   	; 0xb06 <_ZN3LCD7setLineEii>
 4de:	80 91 7c 01 	lds	r24, 0x017C	; 0x80017c <i>
 4e2:	90 91 7d 01 	lds	r25, 0x017D	; 0x80017d <i+0x1>
 4e6:	a8 d3       	rcall	.+1872   	; 0xc38 <_ZN3MCU8Features5ASKIIEi>
					lcd.exportData(ASKII(j));
 4e8:	bc 01       	movw	r22, r24
 4ea:	81 e8       	ldi	r24, 0x81	; 129
 4ec:	91 e0       	ldi	r25, 0x01	; 1
 4ee:	62 d2       	rcall	.+1220   	; 0x9b4 <_ZN3LCD10exportDataEi>
 4f0:	80 91 7a 01 	lds	r24, 0x017A	; 0x80017a <j>
 4f4:	90 91 7b 01 	lds	r25, 0x017B	; 0x80017b <j+0x1>
 4f8:	9f d3       	rcall	.+1854   	; 0xc38 <_ZN3MCU8Features5ASKIIEi>
 4fa:	bc 01       	movw	r22, r24
 4fc:	81 e8       	ldi	r24, 0x81	; 129
					lcd.print(":");
 4fe:	91 e0       	ldi	r25, 0x01	; 1
 500:	59 d2       	rcall	.+1202   	; 0x9b4 <_ZN3LCD10exportDataEi>
 502:	6b e4       	ldi	r22, 0x4B	; 75
 504:	71 e0       	ldi	r23, 0x01	; 1
 506:	81 e8       	ldi	r24, 0x81	; 129
 508:	91 e0       	ldi	r25, 0x01	; 1
					lcd.exportData(ASKII(k));
 50a:	ea d2       	rcall	.+1492   	; 0xae0 <_ZN3LCD5printEPKc>
 50c:	80 91 78 01 	lds	r24, 0x0178	; 0x800178 <k>
 510:	90 91 79 01 	lds	r25, 0x0179	; 0x800179 <k+0x1>
 514:	91 d3       	rcall	.+1826   	; 0xc38 <_ZN3MCU8Features5ASKIIEi>
 516:	bc 01       	movw	r22, r24
 518:	81 e8       	ldi	r24, 0x81	; 129
 51a:	91 e0       	ldi	r25, 0x01	; 1
 51c:	4b d2       	rcall	.+1174   	; 0x9b4 <_ZN3LCD10exportDataEi>
					lcd.exportData(ASKII(l));
 51e:	80 91 76 01 	lds	r24, 0x0176	; 0x800176 <__data_end>
 522:	90 91 77 01 	lds	r25, 0x0177	; 0x800177 <__data_end+0x1>
 526:	88 d3       	rcall	.+1808   	; 0xc38 <_ZN3MCU8Features5ASKIIEi>
 528:	bc 01       	movw	r22, r24
 52a:	81 e8       	ldi	r24, 0x81	; 129
 52c:	91 e0       	ldi	r25, 0x01	; 1
 52e:	42 d2       	rcall	.+1156   	; 0x9b4 <_ZN3LCD10exportDataEi>
 530:	95 c0       	rjmp	.+298    	; 0x65c <__LOCK_REGION_LENGTH__+0x25c>
				}
				
				break;
			
			case SW_6:
				if (Set == OFF && Setted == ON)
 532:	80 91 7f 01 	lds	r24, 0x017F	; 0x80017f <Set>
 536:	81 11       	cpse	r24, r1
 538:	91 c0       	rjmp	.+290    	; 0x65c <__LOCK_REGION_LENGTH__+0x25c>
 53a:	80 91 7e 01 	lds	r24, 0x017E	; 0x80017e <Setted>
 53e:	88 23       	and	r24, r24
				{
					if (k != 5)
 540:	09 f4       	brne	.+2      	; 0x544 <__LOCK_REGION_LENGTH__+0x144>
 542:	8c c0       	rjmp	.+280    	; 0x65c <__LOCK_REGION_LENGTH__+0x25c>
 544:	80 91 78 01 	lds	r24, 0x0178	; 0x800178 <k>
 548:	90 91 79 01 	lds	r25, 0x0179	; 0x800179 <k+0x1>
					{
						k++;
 54c:	85 30       	cpi	r24, 0x05	; 5
 54e:	91 05       	cpc	r25, r1
 550:	31 f0       	breq	.+12     	; 0x55e <__LOCK_REGION_LENGTH__+0x15e>
 552:	01 96       	adiw	r24, 0x01	; 1
 554:	90 93 79 01 	sts	0x0179, r25	; 0x800179 <k+0x1>
					}
					
					else
					{
						k = 0;
 558:	80 93 78 01 	sts	0x0178, r24	; 0x800178 <k>
					}
					
					lcd.setLine(2, 12);
 55c:	04 c0       	rjmp	.+8      	; 0x566 <__LOCK_REGION_LENGTH__+0x166>
 55e:	10 92 79 01 	sts	0x0179, r1	; 0x800179 <k+0x1>
 562:	10 92 78 01 	sts	0x0178, r1	; 0x800178 <k>
 566:	4c e0       	ldi	r20, 0x0C	; 12
 568:	50 e0       	ldi	r21, 0x00	; 0
					lcd.exportData(ASKII(i));
 56a:	62 e0       	ldi	r22, 0x02	; 2
 56c:	70 e0       	ldi	r23, 0x00	; 0
 56e:	81 e8       	ldi	r24, 0x81	; 129
 570:	91 e0       	ldi	r25, 0x01	; 1
 572:	c9 d2       	rcall	.+1426   	; 0xb06 <_ZN3LCD7setLineEii>
 574:	80 91 7c 01 	lds	r24, 0x017C	; 0x80017c <i>
 578:	90 91 7d 01 	lds	r25, 0x017D	; 0x80017d <i+0x1>
 57c:	5d d3       	rcall	.+1722   	; 0xc38 <_ZN3MCU8Features5ASKIIEi>
 57e:	bc 01       	movw	r22, r24
					lcd.exportData(ASKII(j));
 580:	81 e8       	ldi	r24, 0x81	; 129
 582:	91 e0       	ldi	r25, 0x01	; 1
 584:	17 d2       	rcall	.+1070   	; 0x9b4 <_ZN3LCD10exportDataEi>
 586:	80 91 7a 01 	lds	r24, 0x017A	; 0x80017a <j>
 58a:	90 91 7b 01 	lds	r25, 0x017B	; 0x80017b <j+0x1>
 58e:	54 d3       	rcall	.+1704   	; 0xc38 <_ZN3MCU8Features5ASKIIEi>
 590:	bc 01       	movw	r22, r24
 592:	81 e8       	ldi	r24, 0x81	; 129
 594:	91 e0       	ldi	r25, 0x01	; 1
					lcd.print(":");
 596:	0e d2       	rcall	.+1052   	; 0x9b4 <_ZN3LCD10exportDataEi>
 598:	6b e4       	ldi	r22, 0x4B	; 75
 59a:	71 e0       	ldi	r23, 0x01	; 1
 59c:	81 e8       	ldi	r24, 0x81	; 129
 59e:	91 e0       	ldi	r25, 0x01	; 1
					lcd.exportData(ASKII(k));
 5a0:	9f d2       	rcall	.+1342   	; 0xae0 <_ZN3LCD5printEPKc>
 5a2:	80 91 78 01 	lds	r24, 0x0178	; 0x800178 <k>
 5a6:	90 91 79 01 	lds	r25, 0x0179	; 0x800179 <k+0x1>
 5aa:	46 d3       	rcall	.+1676   	; 0xc38 <_ZN3MCU8Features5ASKIIEi>
 5ac:	bc 01       	movw	r22, r24
 5ae:	81 e8       	ldi	r24, 0x81	; 129
 5b0:	91 e0       	ldi	r25, 0x01	; 1
					lcd.exportData(ASKII(l));
 5b2:	00 d2       	rcall	.+1024   	; 0x9b4 <_ZN3LCD10exportDataEi>
 5b4:	80 91 76 01 	lds	r24, 0x0176	; 0x800176 <__data_end>
 5b8:	90 91 77 01 	lds	r25, 0x0177	; 0x800177 <__data_end+0x1>
 5bc:	3d d3       	rcall	.+1658   	; 0xc38 <_ZN3MCU8Features5ASKIIEi>
 5be:	bc 01       	movw	r22, r24
 5c0:	81 e8       	ldi	r24, 0x81	; 129
 5c2:	91 e0       	ldi	r25, 0x01	; 1
 5c4:	f7 d1       	rcall	.+1006   	; 0x9b4 <_ZN3LCD10exportDataEi>
				}
				
				break;
			
			case SW_7:
				if (Set == OFF && Setted == ON)
 5c6:	4a c0       	rjmp	.+148    	; 0x65c <__LOCK_REGION_LENGTH__+0x25c>
 5c8:	80 91 7f 01 	lds	r24, 0x017F	; 0x80017f <Set>
 5cc:	81 11       	cpse	r24, r1
 5ce:	46 c0       	rjmp	.+140    	; 0x65c <__LOCK_REGION_LENGTH__+0x25c>
 5d0:	80 91 7e 01 	lds	r24, 0x017E	; 0x80017e <Setted>
				{
					if (l != 9)
 5d4:	88 23       	and	r24, r24
 5d6:	09 f4       	brne	.+2      	; 0x5da <__LOCK_REGION_LENGTH__+0x1da>
 5d8:	41 c0       	rjmp	.+130    	; 0x65c <__LOCK_REGION_LENGTH__+0x25c>
 5da:	80 91 76 01 	lds	r24, 0x0176	; 0x800176 <__data_end>
 5de:	90 91 77 01 	lds	r25, 0x0177	; 0x800177 <__data_end+0x1>
					{
						l++;
 5e2:	89 30       	cpi	r24, 0x09	; 9
 5e4:	91 05       	cpc	r25, r1
 5e6:	31 f0       	breq	.+12     	; 0x5f4 <__LOCK_REGION_LENGTH__+0x1f4>
 5e8:	01 96       	adiw	r24, 0x01	; 1
					}
					
					else
					{
						l = 0;
 5ea:	90 93 77 01 	sts	0x0177, r25	; 0x800177 <__data_end+0x1>
 5ee:	80 93 76 01 	sts	0x0176, r24	; 0x800176 <__data_end>
					}
					
					lcd.setLine(2, 12);
 5f2:	04 c0       	rjmp	.+8      	; 0x5fc <__LOCK_REGION_LENGTH__+0x1fc>
 5f4:	10 92 77 01 	sts	0x0177, r1	; 0x800177 <__data_end+0x1>
 5f8:	10 92 76 01 	sts	0x0176, r1	; 0x800176 <__data_end>
 5fc:	4c e0       	ldi	r20, 0x0C	; 12
 5fe:	50 e0       	ldi	r21, 0x00	; 0
 600:	62 e0       	ldi	r22, 0x02	; 2
					lcd.exportData(ASKII(i));
 602:	70 e0       	ldi	r23, 0x00	; 0
 604:	81 e8       	ldi	r24, 0x81	; 129
 606:	91 e0       	ldi	r25, 0x01	; 1
 608:	7e d2       	rcall	.+1276   	; 0xb06 <_ZN3LCD7setLineEii>
 60a:	80 91 7c 01 	lds	r24, 0x017C	; 0x80017c <i>
 60e:	90 91 7d 01 	lds	r25, 0x017D	; 0x80017d <i+0x1>
 612:	12 d3       	rcall	.+1572   	; 0xc38 <_ZN3MCU8Features5ASKIIEi>
 614:	bc 01       	movw	r22, r24
 616:	81 e8       	ldi	r24, 0x81	; 129
					lcd.exportData(ASKII(j));
 618:	91 e0       	ldi	r25, 0x01	; 1
 61a:	cc d1       	rcall	.+920    	; 0x9b4 <_ZN3LCD10exportDataEi>
 61c:	80 91 7a 01 	lds	r24, 0x017A	; 0x80017a <j>
 620:	90 91 7b 01 	lds	r25, 0x017B	; 0x80017b <j+0x1>
 624:	09 d3       	rcall	.+1554   	; 0xc38 <_ZN3MCU8Features5ASKIIEi>
 626:	bc 01       	movw	r22, r24
 628:	81 e8       	ldi	r24, 0x81	; 129
 62a:	91 e0       	ldi	r25, 0x01	; 1
 62c:	c3 d1       	rcall	.+902    	; 0x9b4 <_ZN3LCD10exportDataEi>
					lcd.print(":");
 62e:	6b e4       	ldi	r22, 0x4B	; 75
 630:	71 e0       	ldi	r23, 0x01	; 1
 632:	81 e8       	ldi	r24, 0x81	; 129
 634:	91 e0       	ldi	r25, 0x01	; 1
 636:	54 d2       	rcall	.+1192   	; 0xae0 <_ZN3LCD5printEPKc>
 638:	80 91 78 01 	lds	r24, 0x0178	; 0x800178 <k>
					lcd.exportData(ASKII(k));
 63c:	90 91 79 01 	lds	r25, 0x0179	; 0x800179 <k+0x1>
 640:	fb d2       	rcall	.+1526   	; 0xc38 <_ZN3MCU8Features5ASKIIEi>
 642:	bc 01       	movw	r22, r24
 644:	81 e8       	ldi	r24, 0x81	; 129
 646:	91 e0       	ldi	r25, 0x01	; 1
 648:	b5 d1       	rcall	.+874    	; 0x9b4 <_ZN3LCD10exportDataEi>
 64a:	80 91 76 01 	lds	r24, 0x0176	; 0x800176 <__data_end>
 64e:	90 91 77 01 	lds	r25, 0x0177	; 0x800177 <__data_end+0x1>
					lcd.exportData(ASKII(l));
 652:	f2 d2       	rcall	.+1508   	; 0xc38 <_ZN3MCU8Features5ASKIIEi>
 654:	bc 01       	movw	r22, r24
 656:	81 e8       	ldi	r24, 0x81	; 129
 658:	91 e0       	ldi	r25, 0x01	; 1
 65a:	ac d1       	rcall	.+856    	; 0x9b4 <_ZN3LCD10exportDataEi>
 65c:	ff 91       	pop	r31
 65e:	ef 91       	pop	r30
 660:	cf 91       	pop	r28
 662:	bf 91       	pop	r27
 664:	af 91       	pop	r26
			default:
				break;
		}
	}
	
}
 666:	9f 91       	pop	r25
 668:	8f 91       	pop	r24
 66a:	7f 91       	pop	r23
 66c:	6f 91       	pop	r22
 66e:	5f 91       	pop	r21
 670:	4f 91       	pop	r20
 672:	3f 91       	pop	r19
 674:	2f 91       	pop	r18
 676:	0f 90       	pop	r0
 678:	0b be       	out	0x3b, r0	; 59
 67a:	0f 90       	pop	r0
 67c:	0f be       	out	0x3f, r0	; 63
 67e:	0f 90       	pop	r0
 680:	1f 90       	pop	r1
 682:	18 95       	reti

00000684 <__vector_12>:
 684:	1f 92       	push	r1
 686:	0f 92       	push	r0
 688:	0f b6       	in	r0, 0x3f	; 63
 68a:	0f 92       	push	r0
 68c:	11 24       	eor	r1, r1


ISR(TIMER1_COMPA_vect)
{
 68e:	0b b6       	in	r0, 0x3b	; 59
 690:	0f 92       	push	r0
 692:	2f 93       	push	r18
 694:	3f 93       	push	r19
 696:	4f 93       	push	r20
 698:	5f 93       	push	r21
 69a:	6f 93       	push	r22
 69c:	7f 93       	push	r23
 69e:	8f 93       	push	r24
 6a0:	9f 93       	push	r25
 6a2:	af 93       	push	r26
 6a4:	bf 93       	push	r27
 6a6:	ef 93       	push	r30
 6a8:	ff 93       	push	r31
	
	if (Start == ON)
 6aa:	80 91 80 01 	lds	r24, 0x0180	; 0x800180 <Start>
 6ae:	88 23       	and	r24, r24
 6b0:	09 f4       	brne	.+2      	; 0x6b4 <__vector_12+0x30>
 6b2:	b5 c0       	rjmp	.+362    	; 0x81e <__vector_12+0x19a>
	{
		if (Pause == OFF)
 6b4:	80 91 00 01 	lds	r24, 0x0100	; 0x800100 <__DATA_REGION_ORIGIN__>
 6b8:	81 11       	cpse	r24, r1
 6ba:	a0 c0       	rjmp	.+320    	; 0x7fc <__vector_12+0x178>
		{
			
			lcd.setLine(2, 12);
 6bc:	4c e0       	ldi	r20, 0x0C	; 12
 6be:	50 e0       	ldi	r21, 0x00	; 0
 6c0:	62 e0       	ldi	r22, 0x02	; 2
 6c2:	70 e0       	ldi	r23, 0x00	; 0
 6c4:	81 e8       	ldi	r24, 0x81	; 129
 6c6:	91 e0       	ldi	r25, 0x01	; 1
 6c8:	1e d2       	rcall	.+1084   	; 0xb06 <_ZN3LCD7setLineEii>
			
			lcd.exportData(ASKII(i));
 6ca:	80 91 7c 01 	lds	r24, 0x017C	; 0x80017c <i>
 6ce:	90 91 7d 01 	lds	r25, 0x017D	; 0x80017d <i+0x1>
 6d2:	b2 d2       	rcall	.+1380   	; 0xc38 <_ZN3MCU8Features5ASKIIEi>
 6d4:	bc 01       	movw	r22, r24
 6d6:	81 e8       	ldi	r24, 0x81	; 129
 6d8:	91 e0       	ldi	r25, 0x01	; 1
 6da:	6c d1       	rcall	.+728    	; 0x9b4 <_ZN3LCD10exportDataEi>
			lcd.exportData(ASKII(j));
 6dc:	80 91 7a 01 	lds	r24, 0x017A	; 0x80017a <j>
 6e0:	90 91 7b 01 	lds	r25, 0x017B	; 0x80017b <j+0x1>
 6e4:	a9 d2       	rcall	.+1362   	; 0xc38 <_ZN3MCU8Features5ASKIIEi>
 6e6:	bc 01       	movw	r22, r24
 6e8:	81 e8       	ldi	r24, 0x81	; 129
 6ea:	91 e0       	ldi	r25, 0x01	; 1
 6ec:	63 d1       	rcall	.+710    	; 0x9b4 <_ZN3LCD10exportDataEi>
			lcd.print(":");
 6ee:	6b e4       	ldi	r22, 0x4B	; 75
 6f0:	71 e0       	ldi	r23, 0x01	; 1
 6f2:	81 e8       	ldi	r24, 0x81	; 129
 6f4:	91 e0       	ldi	r25, 0x01	; 1
 6f6:	f4 d1       	rcall	.+1000   	; 0xae0 <_ZN3LCD5printEPKc>
			lcd.exportData(ASKII(k));
 6f8:	80 91 78 01 	lds	r24, 0x0178	; 0x800178 <k>
 6fc:	90 91 79 01 	lds	r25, 0x0179	; 0x800179 <k+0x1>
 700:	9b d2       	rcall	.+1334   	; 0xc38 <_ZN3MCU8Features5ASKIIEi>
 702:	bc 01       	movw	r22, r24
 704:	81 e8       	ldi	r24, 0x81	; 129
 706:	91 e0       	ldi	r25, 0x01	; 1
 708:	55 d1       	rcall	.+682    	; 0x9b4 <_ZN3LCD10exportDataEi>
			lcd.exportData(ASKII(l));
 70a:	80 91 76 01 	lds	r24, 0x0176	; 0x800176 <__data_end>
 70e:	90 91 77 01 	lds	r25, 0x0177	; 0x800177 <__data_end+0x1>
 712:	92 d2       	rcall	.+1316   	; 0xc38 <_ZN3MCU8Features5ASKIIEi>
 714:	bc 01       	movw	r22, r24
 716:	81 e8       	ldi	r24, 0x81	; 129
 718:	91 e0       	ldi	r25, 0x01	; 1
 71a:	4c d1       	rcall	.+664    	; 0x9b4 <_ZN3LCD10exportDataEi>
 71c:	80 91 76 01 	lds	r24, 0x0176	; 0x800176 <__data_end>
			
			l--;
 720:	90 91 77 01 	lds	r25, 0x0177	; 0x800177 <__data_end+0x1>
 724:	01 97       	sbiw	r24, 0x01	; 1
 726:	90 93 77 01 	sts	0x0177, r25	; 0x800177 <__data_end+0x1>
 72a:	80 93 76 01 	sts	0x0176, r24	; 0x800176 <__data_end>
 72e:	99 23       	and	r25, r25
			
			if (l < 0)
 730:	7c f4       	brge	.+30     	; 0x750 <__vector_12+0xcc>
 732:	89 e0       	ldi	r24, 0x09	; 9
			{
				l = 9;
 734:	90 e0       	ldi	r25, 0x00	; 0
 736:	90 93 77 01 	sts	0x0177, r25	; 0x800177 <__data_end+0x1>
 73a:	80 93 76 01 	sts	0x0176, r24	; 0x800176 <__data_end>
 73e:	80 91 78 01 	lds	r24, 0x0178	; 0x800178 <k>
				k--;
 742:	90 91 79 01 	lds	r25, 0x0179	; 0x800179 <k+0x1>
 746:	01 97       	sbiw	r24, 0x01	; 1
 748:	90 93 79 01 	sts	0x0179, r25	; 0x800179 <k+0x1>
 74c:	80 93 78 01 	sts	0x0178, r24	; 0x800178 <k>
 750:	80 91 78 01 	lds	r24, 0x0178	; 0x800178 <k>
			}
			
			if (k < 0)
 754:	90 91 79 01 	lds	r25, 0x0179	; 0x800179 <k+0x1>
 758:	99 23       	and	r25, r25
 75a:	7c f4       	brge	.+30     	; 0x77a <__vector_12+0xf6>
 75c:	85 e0       	ldi	r24, 0x05	; 5
			{
				k = 5;
 75e:	90 e0       	ldi	r25, 0x00	; 0
 760:	90 93 79 01 	sts	0x0179, r25	; 0x800179 <k+0x1>
 764:	80 93 78 01 	sts	0x0178, r24	; 0x800178 <k>
 768:	80 91 7a 01 	lds	r24, 0x017A	; 0x80017a <j>
				j--;
 76c:	90 91 7b 01 	lds	r25, 0x017B	; 0x80017b <j+0x1>
 770:	01 97       	sbiw	r24, 0x01	; 1
 772:	90 93 7b 01 	sts	0x017B, r25	; 0x80017b <j+0x1>
 776:	80 93 7a 01 	sts	0x017A, r24	; 0x80017a <j>
 77a:	80 91 7a 01 	lds	r24, 0x017A	; 0x80017a <j>
			}
			
			if (j < 0)
 77e:	90 91 7b 01 	lds	r25, 0x017B	; 0x80017b <j+0x1>
 782:	99 23       	and	r25, r25
 784:	7c f4       	brge	.+30     	; 0x7a4 <__vector_12+0x120>
 786:	89 e0       	ldi	r24, 0x09	; 9
			{
				j = 9;
 788:	90 e0       	ldi	r25, 0x00	; 0
 78a:	90 93 7b 01 	sts	0x017B, r25	; 0x80017b <j+0x1>
 78e:	80 93 7a 01 	sts	0x017A, r24	; 0x80017a <j>
 792:	80 91 7c 01 	lds	r24, 0x017C	; 0x80017c <i>
				i--;
 796:	90 91 7d 01 	lds	r25, 0x017D	; 0x80017d <i+0x1>
 79a:	01 97       	sbiw	r24, 0x01	; 1
 79c:	90 93 7d 01 	sts	0x017D, r25	; 0x80017d <i+0x1>
 7a0:	80 93 7c 01 	sts	0x017C, r24	; 0x80017c <i>
 7a4:	80 91 7c 01 	lds	r24, 0x017C	; 0x80017c <i>
			}
			
			if (i < 0)
 7a8:	90 91 7d 01 	lds	r25, 0x017D	; 0x80017d <i+0x1>
 7ac:	99 23       	and	r25, r25
 7ae:	bc f5       	brge	.+110    	; 0x81e <__vector_12+0x19a>
 7b0:	10 92 7d 01 	sts	0x017D, r1	; 0x80017d <i+0x1>
			{
				i = 0;
 7b4:	10 92 7c 01 	sts	0x017C, r1	; 0x80017c <i>
 7b8:	10 92 7b 01 	sts	0x017B, r1	; 0x80017b <j+0x1>
				j = 0;
 7bc:	10 92 7a 01 	sts	0x017A, r1	; 0x80017a <j>
 7c0:	10 92 79 01 	sts	0x0179, r1	; 0x800179 <k+0x1>
				k = 0;
 7c4:	10 92 78 01 	sts	0x0178, r1	; 0x800178 <k>
				l = 0;
 7c8:	10 92 77 01 	sts	0x0177, r1	; 0x800177 <__data_end+0x1>
 7cc:	10 92 76 01 	sts	0x0176, r1	; 0x800176 <__data_end>
				
				lcd.clear(1);
 7d0:	61 e0       	ldi	r22, 0x01	; 1
 7d2:	70 e0       	ldi	r23, 0x00	; 0
 7d4:	81 e8       	ldi	r24, 0x81	; 129
 7d6:	91 e0       	ldi	r25, 0x01	; 1
 7d8:	cc d1       	rcall	.+920    	; 0xb72 <_ZN3LCD5clearEi>
				
				lcd.setLine(1, 1);
 7da:	41 e0       	ldi	r20, 0x01	; 1
 7dc:	50 e0       	ldi	r21, 0x00	; 0
 7de:	61 e0       	ldi	r22, 0x01	; 1
 7e0:	70 e0       	ldi	r23, 0x00	; 0
 7e2:	81 e8       	ldi	r24, 0x81	; 129
 7e4:	91 e0       	ldi	r25, 0x01	; 1
 7e6:	8f d1       	rcall	.+798    	; 0xb06 <_ZN3LCD7setLineEii>
				lcd.print("Done");
 7e8:	6a e5       	ldi	r22, 0x5A	; 90
 7ea:	71 e0       	ldi	r23, 0x01	; 1
 7ec:	81 e8       	ldi	r24, 0x81	; 129
 7ee:	91 e0       	ldi	r25, 0x01	; 1
 7f0:	77 d1       	rcall	.+750    	; 0xae0 <_ZN3LCD5printEPKc>
				
				Start = OFF;
 7f2:	10 92 80 01 	sts	0x0180, r1	; 0x800180 <Start>
				Set = OFF;
 7f6:	10 92 7f 01 	sts	0x017F, r1	; 0x80017f <Set>
			
		}
		
		else
		{
			lcd.clear(1);
 7fa:	11 c0       	rjmp	.+34     	; 0x81e <__vector_12+0x19a>
 7fc:	61 e0       	ldi	r22, 0x01	; 1
 7fe:	70 e0       	ldi	r23, 0x00	; 0
 800:	81 e8       	ldi	r24, 0x81	; 129
 802:	91 e0       	ldi	r25, 0x01	; 1
			
			lcd.setLine(1, 1);
 804:	b6 d1       	rcall	.+876    	; 0xb72 <_ZN3LCD5clearEi>
 806:	41 e0       	ldi	r20, 0x01	; 1
 808:	50 e0       	ldi	r21, 0x00	; 0
 80a:	61 e0       	ldi	r22, 0x01	; 1
 80c:	70 e0       	ldi	r23, 0x00	; 0
 80e:	81 e8       	ldi	r24, 0x81	; 129
 810:	91 e0       	ldi	r25, 0x01	; 1
 812:	79 d1       	rcall	.+754    	; 0xb06 <_ZN3LCD7setLineEii>
			lcd.print("Pause");
 814:	6f e5       	ldi	r22, 0x5F	; 95
 816:	71 e0       	ldi	r23, 0x01	; 1
 818:	81 e8       	ldi	r24, 0x81	; 129
 81a:	91 e0       	ldi	r25, 0x01	; 1
 81c:	61 d1       	rcall	.+706    	; 0xae0 <_ZN3LCD5printEPKc>
 81e:	ff 91       	pop	r31
		}
	}
	
 820:	ef 91       	pop	r30
 822:	bf 91       	pop	r27
 824:	af 91       	pop	r26
 826:	9f 91       	pop	r25
 828:	8f 91       	pop	r24
 82a:	7f 91       	pop	r23
 82c:	6f 91       	pop	r22
 82e:	5f 91       	pop	r21
 830:	4f 91       	pop	r20
 832:	3f 91       	pop	r19
 834:	2f 91       	pop	r18
 836:	0f 90       	pop	r0
 838:	0b be       	out	0x3b, r0	; 59
 83a:	0f 90       	pop	r0
 83c:	0f be       	out	0x3f, r0	; 63
 83e:	0f 90       	pop	r0
 840:	1f 90       	pop	r1
 842:	18 95       	reti

00000844 <_GLOBAL__sub_I_sw>:
 844:	6f ef       	ldi	r22, 0xFF	; 255
 846:	7f ef       	ldi	r23, 0xFF	; 255
 848:	81 e0       	ldi	r24, 0x01	; 1
 84a:	90 e0       	ldi	r25, 0x00	; 0
 84c:	64 cc       	rjmp	.-1848   	; 0x116 <_Z41__static_initialization_and_destruction_0ii>
 84e:	08 95       	ret

00000850 <_ZN3LCD10attachPortEi>:
 850:	dc 01       	movw	r26, r24
 852:	ed 91       	ld	r30, X+
 854:	fc 91       	ld	r31, X
 856:	e7 30       	cpi	r30, 0x07	; 7
 858:	f1 05       	cpc	r31, r1
 85a:	90 f4       	brcc	.+36     	; 0x880 <_ZN3LCD10attachPortEi+0x30>
 85c:	ea 5b       	subi	r30, 0xBA	; 186
 85e:	ff 4f       	sbci	r31, 0xFF	; 255
 860:	43 c3       	rjmp	.+1670   	; 0xee8 <__tablejump2__>
 862:	6b bb       	out	0x1b, r22	; 27
 864:	08 95       	ret
 866:	68 bb       	out	0x18, r22	; 24
 868:	08 95       	ret
 86a:	65 bb       	out	0x15, r22	; 21
 86c:	08 95       	ret
 86e:	62 bb       	out	0x12, r22	; 18
 870:	08 95       	ret
 872:	63 b9       	out	0x03, r22	; 3
 874:	08 95       	ret
 876:	60 93 62 00 	sts	0x0062, r22	; 0x800062 <__TEXT_REGION_LENGTH__+0x7e0062>
 87a:	08 95       	ret
 87c:	60 93 65 00 	sts	0x0065, r22	; 0x800065 <__TEXT_REGION_LENGTH__+0x7e0065>
 880:	08 95       	ret

00000882 <_ZN3LCD16attachExtendPortEi>:
 882:	dc 01       	movw	r26, r24
 884:	12 96       	adiw	r26, 0x02	; 2
 886:	ed 91       	ld	r30, X+
 888:	fc 91       	ld	r31, X
 88a:	13 97       	sbiw	r26, 0x03	; 3
 88c:	e7 30       	cpi	r30, 0x07	; 7
 88e:	f1 05       	cpc	r31, r1
 890:	90 f4       	brcc	.+36     	; 0x8b6 <_ZN3LCD16attachExtendPortEi+0x34>
 892:	e3 5b       	subi	r30, 0xB3	; 179
 894:	ff 4f       	sbci	r31, 0xFF	; 255
 896:	28 c3       	rjmp	.+1616   	; 0xee8 <__tablejump2__>
 898:	6b bb       	out	0x1b, r22	; 27
 89a:	08 95       	ret
 89c:	68 bb       	out	0x18, r22	; 24
 89e:	08 95       	ret
 8a0:	65 bb       	out	0x15, r22	; 21
 8a2:	08 95       	ret
 8a4:	62 bb       	out	0x12, r22	; 18
 8a6:	08 95       	ret
 8a8:	63 b9       	out	0x03, r22	; 3
 8aa:	08 95       	ret
 8ac:	60 93 62 00 	sts	0x0062, r22	; 0x800062 <__TEXT_REGION_LENGTH__+0x7e0062>
 8b0:	08 95       	ret
 8b2:	60 93 65 00 	sts	0x0065, r22	; 0x800065 <__TEXT_REGION_LENGTH__+0x7e0065>
 8b6:	08 95       	ret

000008b8 <_ZN3LCD17exportInstructionEi>:
 8b8:	af 92       	push	r10
 8ba:	bf 92       	push	r11
 8bc:	cf 92       	push	r12
 8be:	df 92       	push	r13
 8c0:	ef 92       	push	r14
 8c2:	ff 92       	push	r15
 8c4:	0f 93       	push	r16
 8c6:	1f 93       	push	r17
 8c8:	cf 93       	push	r28
 8ca:	df 93       	push	r29
 8cc:	ec 01       	movw	r28, r24
 8ce:	8b 01       	movw	r16, r22
 8d0:	8c 81       	ldd	r24, Y+4	; 0x04
 8d2:	81 11       	cpse	r24, r1
 8d4:	43 c0       	rjmp	.+134    	; 0x95c <_ZN3LCD17exportInstructionEi+0xa4>
 8d6:	61 e0       	ldi	r22, 0x01	; 1
 8d8:	87 e0       	ldi	r24, 0x07	; 7
 8da:	90 e0       	ldi	r25, 0x00	; 0
 8dc:	9e d1       	rcall	.+828    	; 0xc1a <_ZN3MCU9insertBitEib>
 8de:	6c 01       	movw	r12, r24
 8e0:	60 e0       	ldi	r22, 0x00	; 0
 8e2:	87 e0       	ldi	r24, 0x07	; 7
 8e4:	90 e0       	ldi	r25, 0x00	; 0
 8e6:	99 d1       	rcall	.+818    	; 0xc1a <_ZN3MCU9insertBitEib>
 8e8:	5c 01       	movw	r10, r24
 8ea:	8f e3       	ldi	r24, 0x3F	; 63
 8ec:	9f e1       	ldi	r25, 0x1F	; 31
 8ee:	01 97       	sbiw	r24, 0x01	; 1
 8f0:	f1 f7       	brne	.-4      	; 0x8ee <_ZN3LCD17exportInstructionEi+0x36>
 8f2:	00 c0       	rjmp	.+0      	; 0x8f4 <_ZN3LCD17exportInstructionEi+0x3c>
 8f4:	00 00       	nop
 8f6:	78 01       	movw	r14, r16
 8f8:	f5 94       	asr	r15
 8fa:	e7 94       	ror	r14
 8fc:	f5 94       	asr	r15
 8fe:	e7 94       	ror	r14
 900:	f5 94       	asr	r15
 902:	e7 94       	ror	r14
 904:	f5 94       	asr	r15
 906:	e7 94       	ror	r14
 908:	9f e0       	ldi	r25, 0x0F	; 15
 90a:	e9 22       	and	r14, r25
 90c:	ff 24       	eor	r15, r15
 90e:	b6 01       	movw	r22, r12
 910:	6e 29       	or	r22, r14
 912:	7f 29       	or	r23, r15
 914:	ce 01       	movw	r24, r28
 916:	9c df       	rcall	.-200    	; 0x850 <_ZN3LCD10attachPortEi>
	#else
		//round up by default
		__ticks_dc = (uint32_t)(ceil(fabs(__tmp)));
	#endif

	__builtin_avr_delay_cycles(__ticks_dc);
 918:	85 e0       	ldi	r24, 0x05	; 5
 91a:	8a 95       	dec	r24
 91c:	f1 f7       	brne	.-4      	; 0x91a <_ZN3LCD17exportInstructionEi+0x62>
 91e:	00 00       	nop
 920:	b5 01       	movw	r22, r10
 922:	6e 29       	or	r22, r14
 924:	7f 29       	or	r23, r15
 926:	ce 01       	movw	r24, r28
 928:	93 df       	rcall	.-218    	; 0x850 <_ZN3LCD10attachPortEi>
 92a:	95 e0       	ldi	r25, 0x05	; 5
 92c:	9a 95       	dec	r25
 92e:	f1 f7       	brne	.-4      	; 0x92c <_ZN3LCD17exportInstructionEi+0x74>
 930:	00 00       	nop
 932:	0f 70       	andi	r16, 0x0F	; 15
 934:	11 27       	eor	r17, r17
 936:	b6 01       	movw	r22, r12
 938:	60 2b       	or	r22, r16
 93a:	71 2b       	or	r23, r17
 93c:	ce 01       	movw	r24, r28
 93e:	88 df       	rcall	.-240    	; 0x850 <_ZN3LCD10attachPortEi>
 940:	85 e0       	ldi	r24, 0x05	; 5
 942:	8a 95       	dec	r24
 944:	f1 f7       	brne	.-4      	; 0x942 <_ZN3LCD17exportInstructionEi+0x8a>
 946:	00 00       	nop
 948:	b5 01       	movw	r22, r10
 94a:	60 2b       	or	r22, r16
 94c:	71 2b       	or	r23, r17
 94e:	ce 01       	movw	r24, r28
 950:	7f df       	rcall	.-258    	; 0x850 <_ZN3LCD10attachPortEi>
 952:	95 e0       	ldi	r25, 0x05	; 5
 954:	9a 95       	dec	r25
 956:	f1 f7       	brne	.-4      	; 0x954 <_ZN3LCD17exportInstructionEi+0x9c>
 958:	00 00       	nop
 95a:	21 c0       	rjmp	.+66     	; 0x99e <_ZN3LCD17exportInstructionEi+0xe6>
 95c:	61 e0       	ldi	r22, 0x01	; 1
 95e:	82 e0       	ldi	r24, 0x02	; 2
 960:	90 e0       	ldi	r25, 0x00	; 0
 962:	5b d1       	rcall	.+694    	; 0xc1a <_ZN3MCU9insertBitEib>
 964:	6c 01       	movw	r12, r24
 966:	60 e0       	ldi	r22, 0x00	; 0
 968:	82 e0       	ldi	r24, 0x02	; 2
 96a:	90 e0       	ldi	r25, 0x00	; 0
 96c:	56 d1       	rcall	.+684    	; 0xc1a <_ZN3MCU9insertBitEib>
 96e:	7c 01       	movw	r14, r24
	#else
		//round up by default
		__ticks_dc = (uint32_t)(ceil(fabs(__tmp)));
	#endif

	__builtin_avr_delay_cycles(__ticks_dc);
 970:	8f e3       	ldi	r24, 0x3F	; 63
 972:	9f e1       	ldi	r25, 0x1F	; 31
 974:	01 97       	sbiw	r24, 0x01	; 1
 976:	f1 f7       	brne	.-4      	; 0x974 <_ZN3LCD17exportInstructionEi+0xbc>
 978:	00 c0       	rjmp	.+0      	; 0x97a <_ZN3LCD17exportInstructionEi+0xc2>
 97a:	00 00       	nop
 97c:	b8 01       	movw	r22, r16
 97e:	ce 01       	movw	r24, r28
 980:	80 df       	rcall	.-256    	; 0x882 <_ZN3LCD16attachExtendPortEi>
 982:	b6 01       	movw	r22, r12
 984:	ce 01       	movw	r24, r28
	#else
		//round up by default
		__ticks_dc = (uint32_t)(ceil(fabs(__tmp)));
	#endif

	__builtin_avr_delay_cycles(__ticks_dc);
 986:	64 df       	rcall	.-312    	; 0x850 <_ZN3LCD10attachPortEi>
 988:	95 e0       	ldi	r25, 0x05	; 5
 98a:	9a 95       	dec	r25
 98c:	f1 f7       	brne	.-4      	; 0x98a <_ZN3LCD17exportInstructionEi+0xd2>
 98e:	00 00       	nop
 990:	b7 01       	movw	r22, r14
 992:	ce 01       	movw	r24, r28
 994:	5d df       	rcall	.-326    	; 0x850 <_ZN3LCD10attachPortEi>
 996:	85 e0       	ldi	r24, 0x05	; 5
 998:	8a 95       	dec	r24
 99a:	f1 f7       	brne	.-4      	; 0x998 <_ZN3LCD17exportInstructionEi+0xe0>
 99c:	00 00       	nop
 99e:	df 91       	pop	r29
 9a0:	cf 91       	pop	r28
 9a2:	1f 91       	pop	r17
 9a4:	0f 91       	pop	r16
 9a6:	ff 90       	pop	r15
 9a8:	ef 90       	pop	r14
 9aa:	df 90       	pop	r13
 9ac:	cf 90       	pop	r12
 9ae:	bf 90       	pop	r11
 9b0:	af 90       	pop	r10
 9b2:	08 95       	ret

000009b4 <_ZN3LCD10exportDataEi>:
 9b4:	af 92       	push	r10
 9b6:	bf 92       	push	r11
 9b8:	cf 92       	push	r12
 9ba:	df 92       	push	r13
 9bc:	ef 92       	push	r14
 9be:	ff 92       	push	r15
 9c0:	0f 93       	push	r16
 9c2:	1f 93       	push	r17
 9c4:	cf 93       	push	r28
 9c6:	df 93       	push	r29
 9c8:	ec 01       	movw	r28, r24
 9ca:	8b 01       	movw	r16, r22
 9cc:	8c 81       	ldd	r24, Y+4	; 0x04
 9ce:	81 11       	cpse	r24, r1
 9d0:	4f c0       	rjmp	.+158    	; 0xa70 <_ZN3LCD10exportDataEi+0xbc>
 9d2:	61 e0       	ldi	r22, 0x01	; 1
 9d4:	87 e0       	ldi	r24, 0x07	; 7
 9d6:	90 e0       	ldi	r25, 0x00	; 0
 9d8:	20 d1       	rcall	.+576    	; 0xc1a <_ZN3MCU9insertBitEib>
 9da:	7c 01       	movw	r14, r24
 9dc:	61 e0       	ldi	r22, 0x01	; 1
 9de:	85 e0       	ldi	r24, 0x05	; 5
 9e0:	90 e0       	ldi	r25, 0x00	; 0
 9e2:	1b d1       	rcall	.+566    	; 0xc1a <_ZN3MCU9insertBitEib>
 9e4:	e8 2a       	or	r14, r24
 9e6:	f9 2a       	or	r15, r25
 9e8:	60 e0       	ldi	r22, 0x00	; 0
 9ea:	87 e0       	ldi	r24, 0x07	; 7
 9ec:	90 e0       	ldi	r25, 0x00	; 0
 9ee:	15 d1       	rcall	.+554    	; 0xc1a <_ZN3MCU9insertBitEib>
 9f0:	5c 01       	movw	r10, r24
 9f2:	61 e0       	ldi	r22, 0x01	; 1
 9f4:	85 e0       	ldi	r24, 0x05	; 5
 9f6:	90 e0       	ldi	r25, 0x00	; 0
 9f8:	10 d1       	rcall	.+544    	; 0xc1a <_ZN3MCU9insertBitEib>
 9fa:	a8 2a       	or	r10, r24
 9fc:	b9 2a       	or	r11, r25
	#else
		//round up by default
		__ticks_dc = (uint32_t)(ceil(fabs(__tmp)));
	#endif

	__builtin_avr_delay_cycles(__ticks_dc);
 9fe:	8f e3       	ldi	r24, 0x3F	; 63
 a00:	9f e1       	ldi	r25, 0x1F	; 31
 a02:	01 97       	sbiw	r24, 0x01	; 1
 a04:	f1 f7       	brne	.-4      	; 0xa02 <_ZN3LCD10exportDataEi+0x4e>
 a06:	00 c0       	rjmp	.+0      	; 0xa08 <_ZN3LCD10exportDataEi+0x54>
 a08:	00 00       	nop
 a0a:	68 01       	movw	r12, r16
 a0c:	d5 94       	asr	r13
 a0e:	c7 94       	ror	r12
 a10:	d5 94       	asr	r13
 a12:	c7 94       	ror	r12
 a14:	d5 94       	asr	r13
 a16:	c7 94       	ror	r12
 a18:	d5 94       	asr	r13
 a1a:	c7 94       	ror	r12
 a1c:	9f e0       	ldi	r25, 0x0F	; 15
 a1e:	c9 22       	and	r12, r25
 a20:	dd 24       	eor	r13, r13
 a22:	b7 01       	movw	r22, r14
 a24:	6c 29       	or	r22, r12
 a26:	7d 29       	or	r23, r13
 a28:	ce 01       	movw	r24, r28
 a2a:	12 df       	rcall	.-476    	; 0x850 <_ZN3LCD10attachPortEi>
	#else
		//round up by default
		__ticks_dc = (uint32_t)(ceil(fabs(__tmp)));
	#endif

	__builtin_avr_delay_cycles(__ticks_dc);
 a2c:	85 e0       	ldi	r24, 0x05	; 5
 a2e:	8a 95       	dec	r24
 a30:	f1 f7       	brne	.-4      	; 0xa2e <_ZN3LCD10exportDataEi+0x7a>
 a32:	00 00       	nop
 a34:	b5 01       	movw	r22, r10
 a36:	6c 29       	or	r22, r12
 a38:	7d 29       	or	r23, r13
 a3a:	ce 01       	movw	r24, r28
 a3c:	09 df       	rcall	.-494    	; 0x850 <_ZN3LCD10attachPortEi>
 a3e:	95 e0       	ldi	r25, 0x05	; 5
 a40:	9a 95       	dec	r25
 a42:	f1 f7       	brne	.-4      	; 0xa40 <_ZN3LCD10exportDataEi+0x8c>
 a44:	00 00       	nop
 a46:	0f 70       	andi	r16, 0x0F	; 15
 a48:	11 27       	eor	r17, r17
 a4a:	b7 01       	movw	r22, r14
 a4c:	60 2b       	or	r22, r16
 a4e:	71 2b       	or	r23, r17
 a50:	ce 01       	movw	r24, r28
 a52:	fe de       	rcall	.-516    	; 0x850 <_ZN3LCD10attachPortEi>
 a54:	85 e0       	ldi	r24, 0x05	; 5
 a56:	8a 95       	dec	r24
 a58:	f1 f7       	brne	.-4      	; 0xa56 <_ZN3LCD10exportDataEi+0xa2>
 a5a:	00 00       	nop
 a5c:	b5 01       	movw	r22, r10
 a5e:	60 2b       	or	r22, r16
 a60:	71 2b       	or	r23, r17
 a62:	ce 01       	movw	r24, r28
 a64:	f5 de       	rcall	.-534    	; 0x850 <_ZN3LCD10attachPortEi>
 a66:	95 e0       	ldi	r25, 0x05	; 5
 a68:	9a 95       	dec	r25
 a6a:	f1 f7       	brne	.-4      	; 0xa68 <_ZN3LCD10exportDataEi+0xb4>
 a6c:	00 00       	nop
 a6e:	2d c0       	rjmp	.+90     	; 0xaca <_ZN3LCD10exportDataEi+0x116>
 a70:	61 e0       	ldi	r22, 0x01	; 1
 a72:	82 e0       	ldi	r24, 0x02	; 2
 a74:	90 e0       	ldi	r25, 0x00	; 0
 a76:	d1 d0       	rcall	.+418    	; 0xc1a <_ZN3MCU9insertBitEib>
 a78:	6c 01       	movw	r12, r24
 a7a:	61 e0       	ldi	r22, 0x01	; 1
 a7c:	80 e0       	ldi	r24, 0x00	; 0
 a7e:	90 e0       	ldi	r25, 0x00	; 0
 a80:	cc d0       	rcall	.+408    	; 0xc1a <_ZN3MCU9insertBitEib>
 a82:	c8 2a       	or	r12, r24
 a84:	d9 2a       	or	r13, r25
 a86:	60 e0       	ldi	r22, 0x00	; 0
 a88:	82 e0       	ldi	r24, 0x02	; 2
 a8a:	90 e0       	ldi	r25, 0x00	; 0
 a8c:	c6 d0       	rcall	.+396    	; 0xc1a <_ZN3MCU9insertBitEib>
 a8e:	7c 01       	movw	r14, r24
 a90:	61 e0       	ldi	r22, 0x01	; 1
 a92:	80 e0       	ldi	r24, 0x00	; 0
 a94:	90 e0       	ldi	r25, 0x00	; 0
 a96:	c1 d0       	rcall	.+386    	; 0xc1a <_ZN3MCU9insertBitEib>
 a98:	e8 2a       	or	r14, r24
 a9a:	f9 2a       	or	r15, r25
	#else
		//round up by default
		__ticks_dc = (uint32_t)(ceil(fabs(__tmp)));
	#endif

	__builtin_avr_delay_cycles(__ticks_dc);
 a9c:	8f e3       	ldi	r24, 0x3F	; 63
 a9e:	9f e1       	ldi	r25, 0x1F	; 31
 aa0:	01 97       	sbiw	r24, 0x01	; 1
 aa2:	f1 f7       	brne	.-4      	; 0xaa0 <_ZN3LCD10exportDataEi+0xec>
 aa4:	00 c0       	rjmp	.+0      	; 0xaa6 <_ZN3LCD10exportDataEi+0xf2>
 aa6:	00 00       	nop
 aa8:	b8 01       	movw	r22, r16
 aaa:	ce 01       	movw	r24, r28
 aac:	ea de       	rcall	.-556    	; 0x882 <_ZN3LCD16attachExtendPortEi>
 aae:	b6 01       	movw	r22, r12
 ab0:	ce 01       	movw	r24, r28
 ab2:	ce de       	rcall	.-612    	; 0x850 <_ZN3LCD10attachPortEi>
 ab4:	95 e0       	ldi	r25, 0x05	; 5
	#else
		//round up by default
		__ticks_dc = (uint32_t)(ceil(fabs(__tmp)));
	#endif

	__builtin_avr_delay_cycles(__ticks_dc);
 ab6:	9a 95       	dec	r25
 ab8:	f1 f7       	brne	.-4      	; 0xab6 <_ZN3LCD10exportDataEi+0x102>
 aba:	00 00       	nop
 abc:	b7 01       	movw	r22, r14
 abe:	ce 01       	movw	r24, r28
 ac0:	c7 de       	rcall	.-626    	; 0x850 <_ZN3LCD10attachPortEi>
 ac2:	85 e0       	ldi	r24, 0x05	; 5
 ac4:	8a 95       	dec	r24
 ac6:	f1 f7       	brne	.-4      	; 0xac4 <_ZN3LCD10exportDataEi+0x110>
 ac8:	00 00       	nop
 aca:	df 91       	pop	r29
 acc:	cf 91       	pop	r28
 ace:	1f 91       	pop	r17
 ad0:	0f 91       	pop	r16
 ad2:	ff 90       	pop	r15
 ad4:	ef 90       	pop	r14
 ad6:	df 90       	pop	r13
 ad8:	cf 90       	pop	r12
 ada:	bf 90       	pop	r11
 adc:	af 90       	pop	r10
 ade:	08 95       	ret

00000ae0 <_ZN3LCD5printEPKc>:
 ae0:	0f 93       	push	r16
 ae2:	1f 93       	push	r17
 ae4:	cf 93       	push	r28
 ae6:	df 93       	push	r29
 ae8:	8c 01       	movw	r16, r24
 aea:	eb 01       	movw	r28, r22
 aec:	68 81       	ld	r22, Y
 aee:	66 23       	and	r22, r22
 af0:	29 f0       	breq	.+10     	; 0xafc <_ZN3LCD5printEPKc+0x1c>
 af2:	70 e0       	ldi	r23, 0x00	; 0
 af4:	c8 01       	movw	r24, r16
 af6:	5e df       	rcall	.-324    	; 0x9b4 <_ZN3LCD10exportDataEi>
 af8:	21 96       	adiw	r28, 0x01	; 1
 afa:	f8 cf       	rjmp	.-16     	; 0xaec <_ZN3LCD5printEPKc+0xc>
 afc:	df 91       	pop	r29
 afe:	cf 91       	pop	r28
 b00:	1f 91       	pop	r17
 b02:	0f 91       	pop	r16
 b04:	08 95       	ret

00000b06 <_ZN3LCD7setLineEii>:
 b06:	cf 92       	push	r12
 b08:	df 92       	push	r13
 b0a:	ef 92       	push	r14
 b0c:	ff 92       	push	r15
 b0e:	0f 93       	push	r16
 b10:	1f 93       	push	r17
 b12:	cf 93       	push	r28
 b14:	df 93       	push	r29
 b16:	6c 01       	movw	r12, r24
 b18:	8b 01       	movw	r16, r22
 b1a:	7a 01       	movw	r14, r20
 b1c:	c0 e0       	ldi	r28, 0x00	; 0
 b1e:	d0 e0       	ldi	r29, 0x00	; 0
 b20:	c0 31       	cpi	r28, 0x10	; 16
 b22:	d1 05       	cpc	r29, r1
 b24:	ec f4       	brge	.+58     	; 0xb60 <_ZN3LCD7setLineEii+0x5a>
 b26:	01 30       	cpi	r16, 0x01	; 1
 b28:	11 05       	cpc	r17, r1
 b2a:	59 f4       	brne	.+22     	; 0xb42 <_ZN3LCD7setLineEii+0x3c>
 b2c:	ce 01       	movw	r24, r28
 b2e:	01 96       	adiw	r24, 0x01	; 1
 b30:	8e 15       	cp	r24, r14
 b32:	9f 05       	cpc	r25, r15
 b34:	31 f4       	brne	.+12     	; 0xb42 <_ZN3LCD7setLineEii+0x3c>
 b36:	be 01       	movw	r22, r28
 b38:	60 58       	subi	r22, 0x80	; 128
 b3a:	7f 4f       	sbci	r23, 0xFF	; 255
 b3c:	c6 01       	movw	r24, r12
 b3e:	bc de       	rcall	.-648    	; 0x8b8 <_ZN3LCD17exportInstructionEi>
 b40:	0d c0       	rjmp	.+26     	; 0xb5c <_ZN3LCD7setLineEii+0x56>
 b42:	02 30       	cpi	r16, 0x02	; 2
 b44:	11 05       	cpc	r17, r1
 b46:	51 f4       	brne	.+20     	; 0xb5c <_ZN3LCD7setLineEii+0x56>
 b48:	ce 01       	movw	r24, r28
 b4a:	01 96       	adiw	r24, 0x01	; 1
 b4c:	e8 16       	cp	r14, r24
 b4e:	f9 06       	cpc	r15, r25
 b50:	29 f4       	brne	.+10     	; 0xb5c <_ZN3LCD7setLineEii+0x56>
 b52:	be 01       	movw	r22, r28
 b54:	60 54       	subi	r22, 0x40	; 64
 b56:	7f 4f       	sbci	r23, 0xFF	; 255
 b58:	c6 01       	movw	r24, r12
 b5a:	ae de       	rcall	.-676    	; 0x8b8 <_ZN3LCD17exportInstructionEi>
 b5c:	21 96       	adiw	r28, 0x01	; 1
 b5e:	e0 cf       	rjmp	.-64     	; 0xb20 <_ZN3LCD7setLineEii+0x1a>
 b60:	df 91       	pop	r29
 b62:	cf 91       	pop	r28
 b64:	1f 91       	pop	r17
 b66:	0f 91       	pop	r16
 b68:	ff 90       	pop	r15
 b6a:	ef 90       	pop	r14
 b6c:	df 90       	pop	r13
 b6e:	cf 90       	pop	r12
 b70:	08 95       	ret

00000b72 <_ZN3LCD5clearEi>:
 b72:	cf 93       	push	r28
 b74:	df 93       	push	r29
 b76:	ec 01       	movw	r28, r24
 b78:	61 15       	cp	r22, r1
 b7a:	71 05       	cpc	r23, r1
 b7c:	a1 f4       	brne	.+40     	; 0xba6 <_ZN3LCD5clearEi+0x34>
 b7e:	41 e0       	ldi	r20, 0x01	; 1
 b80:	50 e0       	ldi	r21, 0x00	; 0
 b82:	61 e0       	ldi	r22, 0x01	; 1
 b84:	70 e0       	ldi	r23, 0x00	; 0
 b86:	bf df       	rcall	.-130    	; 0xb06 <_ZN3LCD7setLineEii>
 b88:	65 e6       	ldi	r22, 0x65	; 101
 b8a:	71 e0       	ldi	r23, 0x01	; 1
 b8c:	ce 01       	movw	r24, r28
 b8e:	a8 df       	rcall	.-176    	; 0xae0 <_ZN3LCD5printEPKc>
 b90:	41 e0       	ldi	r20, 0x01	; 1
 b92:	50 e0       	ldi	r21, 0x00	; 0
 b94:	62 e0       	ldi	r22, 0x02	; 2
 b96:	70 e0       	ldi	r23, 0x00	; 0
 b98:	ce 01       	movw	r24, r28
 b9a:	b5 df       	rcall	.-150    	; 0xb06 <_ZN3LCD7setLineEii>
 b9c:	65 e6       	ldi	r22, 0x65	; 101
 b9e:	71 e0       	ldi	r23, 0x01	; 1
 ba0:	ce 01       	movw	r24, r28
 ba2:	9e df       	rcall	.-196    	; 0xae0 <_ZN3LCD5printEPKc>
 ba4:	19 c0       	rjmp	.+50     	; 0xbd8 <_ZN3LCD5clearEi+0x66>
 ba6:	61 30       	cpi	r22, 0x01	; 1
 ba8:	71 05       	cpc	r23, r1
 baa:	51 f4       	brne	.+20     	; 0xbc0 <_ZN3LCD5clearEi+0x4e>
 bac:	41 e0       	ldi	r20, 0x01	; 1
 bae:	50 e0       	ldi	r21, 0x00	; 0
 bb0:	61 e0       	ldi	r22, 0x01	; 1
 bb2:	70 e0       	ldi	r23, 0x00	; 0
 bb4:	a8 df       	rcall	.-176    	; 0xb06 <_ZN3LCD7setLineEii>
 bb6:	65 e6       	ldi	r22, 0x65	; 101
 bb8:	71 e0       	ldi	r23, 0x01	; 1
 bba:	ce 01       	movw	r24, r28
 bbc:	91 df       	rcall	.-222    	; 0xae0 <_ZN3LCD5printEPKc>
 bbe:	0c c0       	rjmp	.+24     	; 0xbd8 <_ZN3LCD5clearEi+0x66>
 bc0:	62 30       	cpi	r22, 0x02	; 2
 bc2:	71 05       	cpc	r23, r1
 bc4:	49 f4       	brne	.+18     	; 0xbd8 <_ZN3LCD5clearEi+0x66>
 bc6:	41 e0       	ldi	r20, 0x01	; 1
 bc8:	50 e0       	ldi	r21, 0x00	; 0
 bca:	62 e0       	ldi	r22, 0x02	; 2
 bcc:	70 e0       	ldi	r23, 0x00	; 0
 bce:	9b df       	rcall	.-202    	; 0xb06 <_ZN3LCD7setLineEii>
 bd0:	65 e6       	ldi	r22, 0x65	; 101
 bd2:	71 e0       	ldi	r23, 0x01	; 1
 bd4:	ce 01       	movw	r24, r28
 bd6:	84 df       	rcall	.-248    	; 0xae0 <_ZN3LCD5printEPKc>
 bd8:	df 91       	pop	r29
 bda:	cf 91       	pop	r28
 bdc:	08 95       	ret

00000bde <_ZN3LCD4initEv>:
 bde:	cf 93       	push	r28
 be0:	df 93       	push	r29
 be2:	ec 01       	movw	r28, r24
 be4:	8c 81       	ldd	r24, Y+4	; 0x04
 be6:	81 11       	cpse	r24, r1
 be8:	05 c0       	rjmp	.+10     	; 0xbf4 <_ZN3LCD4initEv+0x16>
 bea:	68 e2       	ldi	r22, 0x28	; 40
 bec:	70 e0       	ldi	r23, 0x00	; 0
 bee:	ce 01       	movw	r24, r28
 bf0:	63 de       	rcall	.-826    	; 0x8b8 <_ZN3LCD17exportInstructionEi>
 bf2:	04 c0       	rjmp	.+8      	; 0xbfc <_ZN3LCD4initEv+0x1e>
 bf4:	68 e3       	ldi	r22, 0x38	; 56
 bf6:	70 e0       	ldi	r23, 0x00	; 0
 bf8:	ce 01       	movw	r24, r28
 bfa:	5e de       	rcall	.-836    	; 0x8b8 <_ZN3LCD17exportInstructionEi>
 bfc:	6c e0       	ldi	r22, 0x0C	; 12
 bfe:	70 e0       	ldi	r23, 0x00	; 0
 c00:	ce 01       	movw	r24, r28
 c02:	5a de       	rcall	.-844    	; 0x8b8 <_ZN3LCD17exportInstructionEi>
 c04:	66 e0       	ldi	r22, 0x06	; 6
 c06:	70 e0       	ldi	r23, 0x00	; 0
 c08:	ce 01       	movw	r24, r28
 c0a:	56 de       	rcall	.-852    	; 0x8b8 <_ZN3LCD17exportInstructionEi>
 c0c:	61 e0       	ldi	r22, 0x01	; 1
 c0e:	70 e0       	ldi	r23, 0x00	; 0
 c10:	ce 01       	movw	r24, r28
 c12:	52 de       	rcall	.-860    	; 0x8b8 <_ZN3LCD17exportInstructionEi>
 c14:	df 91       	pop	r29
 c16:	cf 91       	pop	r28
 c18:	08 95       	ret

00000c1a <_ZN3MCU9insertBitEib>:
 c1a:	66 23       	and	r22, r22
 c1c:	51 f0       	breq	.+20     	; 0xc32 <_ZN3MCU9insertBitEib+0x18>
 c1e:	21 e0       	ldi	r18, 0x01	; 1
 c20:	30 e0       	ldi	r19, 0x00	; 0
 c22:	a9 01       	movw	r20, r18
 c24:	02 c0       	rjmp	.+4      	; 0xc2a <_ZN3MCU9insertBitEib+0x10>
 c26:	44 0f       	add	r20, r20
 c28:	55 1f       	adc	r21, r21
 c2a:	8a 95       	dec	r24
 c2c:	e2 f7       	brpl	.-8      	; 0xc26 <_ZN3MCU9insertBitEib+0xc>
 c2e:	ca 01       	movw	r24, r20
 c30:	08 95       	ret
 c32:	80 e0       	ldi	r24, 0x00	; 0
 c34:	90 e0       	ldi	r25, 0x00	; 0
 c36:	08 95       	ret

00000c38 <_ZN3MCU8Features5ASKIIEi>:
 c38:	8a 30       	cpi	r24, 0x0A	; 10
 c3a:	91 05       	cpc	r25, r1
 c3c:	10 f4       	brcc	.+4      	; 0xc42 <_ZN3MCU8Features5ASKIIEi+0xa>
 c3e:	c0 96       	adiw	r24, 0x30	; 48
 c40:	08 95       	ret
 c42:	80 e0       	ldi	r24, 0x00	; 0
 c44:	90 e0       	ldi	r25, 0x00	; 0
 c46:	08 95       	ret

00000c48 <_ZN3MCU7Setting9beginPortEib>:
 c48:	66 23       	and	r22, r22
 c4a:	11 f0       	breq	.+4      	; 0xc50 <_ZN3MCU7Setting9beginPortEib+0x8>
 c4c:	2f ef       	ldi	r18, 0xFF	; 255
 c4e:	01 c0       	rjmp	.+2      	; 0xc52 <_ZN3MCU7Setting9beginPortEib+0xa>
 c50:	20 e0       	ldi	r18, 0x00	; 0
 c52:	87 30       	cpi	r24, 0x07	; 7
 c54:	91 05       	cpc	r25, r1
 c56:	e0 f4       	brcc	.+56     	; 0xc90 <_ZN3MCU7Setting9beginPortEib+0x48>
 c58:	fc 01       	movw	r30, r24
 c5a:	ec 5a       	subi	r30, 0xAC	; 172
 c5c:	ff 4f       	sbci	r31, 0xFF	; 255
 c5e:	44 c1       	rjmp	.+648    	; 0xee8 <__tablejump2__>
 c60:	2a bb       	out	0x1a, r18	; 26
 c62:	1b ba       	out	0x1b, r1	; 27
 c64:	08 95       	ret
 c66:	27 bb       	out	0x17, r18	; 23
 c68:	18 ba       	out	0x18, r1	; 24
 c6a:	08 95       	ret
 c6c:	24 bb       	out	0x14, r18	; 20
 c6e:	15 ba       	out	0x15, r1	; 21
 c70:	08 95       	ret
 c72:	21 bb       	out	0x11, r18	; 17
 c74:	12 ba       	out	0x12, r1	; 18
 c76:	08 95       	ret
 c78:	22 b9       	out	0x02, r18	; 2
 c7a:	13 b8       	out	0x03, r1	; 3
 c7c:	08 95       	ret
 c7e:	20 93 61 00 	sts	0x0061, r18	; 0x800061 <__TEXT_REGION_LENGTH__+0x7e0061>
 c82:	10 92 62 00 	sts	0x0062, r1	; 0x800062 <__TEXT_REGION_LENGTH__+0x7e0062>
 c86:	08 95       	ret
 c88:	20 93 64 00 	sts	0x0064, r18	; 0x800064 <__TEXT_REGION_LENGTH__+0x7e0064>
 c8c:	10 92 65 00 	sts	0x0065, r1	; 0x800065 <__TEXT_REGION_LENGTH__+0x7e0065>
 c90:	08 95       	ret

00000c92 <_ZN3MCU7Setting10beginTimerEii>:
 c92:	81 30       	cpi	r24, 0x01	; 1
 c94:	91 05       	cpc	r25, r1
 c96:	09 f4       	brne	.+2      	; 0xc9a <_ZN3MCU7Setting10beginTimerEii+0x8>
 c98:	49 c0       	rjmp	.+146    	; 0xd2c <_ZN3MCU7Setting10beginTimerEii+0x9a>
 c9a:	1c f4       	brge	.+6      	; 0xca2 <_ZN3MCU7Setting10beginTimerEii+0x10>
 c9c:	89 2b       	or	r24, r25
 c9e:	41 f0       	breq	.+16     	; 0xcb0 <_ZN3MCU7Setting10beginTimerEii+0x1e>
 ca0:	08 95       	ret
 ca2:	82 30       	cpi	r24, 0x02	; 2
 ca4:	91 05       	cpc	r25, r1
 ca6:	19 f1       	breq	.+70     	; 0xcee <_ZN3MCU7Setting10beginTimerEii+0x5c>
 ca8:	03 97       	sbiw	r24, 0x03	; 3
 caa:	09 f4       	brne	.+2      	; 0xcae <_ZN3MCU7Setting10beginTimerEii+0x1c>
 cac:	64 c0       	rjmp	.+200    	; 0xd76 <_ZN3MCU7Setting10beginTimerEii+0xe4>
 cae:	08 95       	ret
 cb0:	64 30       	cpi	r22, 0x04	; 4
 cb2:	71 05       	cpc	r23, r1
 cb4:	59 f4       	brne	.+22     	; 0xccc <_ZN3MCU7Setting10beginTimerEii+0x3a>
 cb6:	61 e0       	ldi	r22, 0x01	; 1
 cb8:	80 e0       	ldi	r24, 0x00	; 0
 cba:	90 e0       	ldi	r25, 0x00	; 0
 cbc:	ae df       	rcall	.-164    	; 0xc1a <_ZN3MCU9insertBitEib>
 cbe:	97 b7       	in	r25, 0x37	; 55
 cc0:	89 0f       	add	r24, r25
 cc2:	87 bf       	out	0x37, r24	; 55
 cc4:	87 e0       	ldi	r24, 0x07	; 7
 cc6:	83 bf       	out	0x33, r24	; 51
 cc8:	12 be       	out	0x32, r1	; 50
 cca:	08 95       	ret
 ccc:	63 30       	cpi	r22, 0x03	; 3
 cce:	71 05       	cpc	r23, r1
 cd0:	09 f0       	breq	.+2      	; 0xcd4 <_ZN3MCU7Setting10beginTimerEii+0x42>
 cd2:	82 c0       	rjmp	.+260    	; 0xdd8 <_ZN3MCU7Setting10beginTimerEii+0x146>
 cd4:	61 e0       	ldi	r22, 0x01	; 1
 cd6:	81 e0       	ldi	r24, 0x01	; 1
 cd8:	90 e0       	ldi	r25, 0x00	; 0
 cda:	9f df       	rcall	.-194    	; 0xc1a <_ZN3MCU9insertBitEib>
 cdc:	97 b7       	in	r25, 0x37	; 55
 cde:	89 0f       	add	r24, r25
 ce0:	87 bf       	out	0x37, r24	; 55
 ce2:	8f e0       	ldi	r24, 0x0F	; 15
 ce4:	83 bf       	out	0x33, r24	; 51
 ce6:	12 be       	out	0x32, r1	; 50
 ce8:	8f ef       	ldi	r24, 0xFF	; 255
 cea:	81 bf       	out	0x31, r24	; 49
 cec:	08 95       	ret
 cee:	64 30       	cpi	r22, 0x04	; 4
 cf0:	71 05       	cpc	r23, r1
 cf2:	59 f4       	brne	.+22     	; 0xd0a <_ZN3MCU7Setting10beginTimerEii+0x78>
 cf4:	61 e0       	ldi	r22, 0x01	; 1
 cf6:	86 e0       	ldi	r24, 0x06	; 6
 cf8:	90 e0       	ldi	r25, 0x00	; 0
 cfa:	8f df       	rcall	.-226    	; 0xc1a <_ZN3MCU9insertBitEib>
 cfc:	97 b7       	in	r25, 0x37	; 55
 cfe:	89 0f       	add	r24, r25
 d00:	87 bf       	out	0x37, r24	; 55
 d02:	85 e0       	ldi	r24, 0x05	; 5
 d04:	85 bd       	out	0x25, r24	; 37
 d06:	14 bc       	out	0x24, r1	; 36
 d08:	08 95       	ret
 d0a:	63 30       	cpi	r22, 0x03	; 3
 d0c:	71 05       	cpc	r23, r1
 d0e:	09 f0       	breq	.+2      	; 0xd12 <_ZN3MCU7Setting10beginTimerEii+0x80>
 d10:	63 c0       	rjmp	.+198    	; 0xdd8 <_ZN3MCU7Setting10beginTimerEii+0x146>
 d12:	61 e0       	ldi	r22, 0x01	; 1
 d14:	87 e0       	ldi	r24, 0x07	; 7
 d16:	90 e0       	ldi	r25, 0x00	; 0
 d18:	80 df       	rcall	.-256    	; 0xc1a <_ZN3MCU9insertBitEib>
 d1a:	97 b7       	in	r25, 0x37	; 55
 d1c:	89 0f       	add	r24, r25
 d1e:	87 bf       	out	0x37, r24	; 55
 d20:	8d e0       	ldi	r24, 0x0D	; 13
 d22:	85 bd       	out	0x25, r24	; 37
 d24:	14 bc       	out	0x24, r1	; 36
 d26:	80 ea       	ldi	r24, 0xA0	; 160
 d28:	83 bd       	out	0x23, r24	; 35
 d2a:	08 95       	ret
 d2c:	64 30       	cpi	r22, 0x04	; 4
 d2e:	71 05       	cpc	r23, r1
 d30:	69 f4       	brne	.+26     	; 0xd4c <_ZN3MCU7Setting10beginTimerEii+0xba>
 d32:	61 e0       	ldi	r22, 0x01	; 1
 d34:	82 e0       	ldi	r24, 0x02	; 2
 d36:	90 e0       	ldi	r25, 0x00	; 0
 d38:	70 df       	rcall	.-288    	; 0xc1a <_ZN3MCU9insertBitEib>
 d3a:	97 b7       	in	r25, 0x37	; 55
 d3c:	89 0f       	add	r24, r25
 d3e:	87 bf       	out	0x37, r24	; 55
 d40:	1f bc       	out	0x2f, r1	; 47
 d42:	85 e0       	ldi	r24, 0x05	; 5
 d44:	8e bd       	out	0x2e, r24	; 46
 d46:	1d bc       	out	0x2d, r1	; 45
 d48:	1c bc       	out	0x2c, r1	; 44
 d4a:	08 95       	ret
 d4c:	63 30       	cpi	r22, 0x03	; 3
 d4e:	71 05       	cpc	r23, r1
 d50:	09 f0       	breq	.+2      	; 0xd54 <_ZN3MCU7Setting10beginTimerEii+0xc2>
 d52:	42 c0       	rjmp	.+132    	; 0xdd8 <_ZN3MCU7Setting10beginTimerEii+0x146>
 d54:	61 e0       	ldi	r22, 0x01	; 1
 d56:	84 e0       	ldi	r24, 0x04	; 4
 d58:	90 e0       	ldi	r25, 0x00	; 0
 d5a:	5f df       	rcall	.-322    	; 0xc1a <_ZN3MCU9insertBitEib>
 d5c:	97 b7       	in	r25, 0x37	; 55
 d5e:	89 0f       	add	r24, r25
 d60:	87 bf       	out	0x37, r24	; 55
 d62:	1f bc       	out	0x2f, r1	; 47
 d64:	8d e0       	ldi	r24, 0x0D	; 13
 d66:	8e bd       	out	0x2e, r24	; 46
 d68:	1d bc       	out	0x2d, r1	; 45
 d6a:	1c bc       	out	0x2c, r1	; 44
 d6c:	8d e3       	ldi	r24, 0x3D	; 61
 d6e:	8b bd       	out	0x2b, r24	; 43
 d70:	89 e0       	ldi	r24, 0x09	; 9
 d72:	8a bd       	out	0x2a, r24	; 42
 d74:	08 95       	ret
 d76:	64 30       	cpi	r22, 0x04	; 4
 d78:	71 05       	cpc	r23, r1
 d7a:	99 f4       	brne	.+38     	; 0xda2 <_ZN3MCU7Setting10beginTimerEii+0x110>
 d7c:	61 e0       	ldi	r22, 0x01	; 1
 d7e:	82 e0       	ldi	r24, 0x02	; 2
 d80:	90 e0       	ldi	r25, 0x00	; 0
 d82:	4b df       	rcall	.-362    	; 0xc1a <_ZN3MCU9insertBitEib>
 d84:	ed e7       	ldi	r30, 0x7D	; 125
 d86:	f0 e0       	ldi	r31, 0x00	; 0
 d88:	90 81       	ld	r25, Z
 d8a:	89 0f       	add	r24, r25
 d8c:	80 83       	st	Z, r24
 d8e:	10 92 8b 00 	sts	0x008B, r1	; 0x80008b <__TEXT_REGION_LENGTH__+0x7e008b>
 d92:	85 e0       	ldi	r24, 0x05	; 5
 d94:	80 93 8a 00 	sts	0x008A, r24	; 0x80008a <__TEXT_REGION_LENGTH__+0x7e008a>
 d98:	10 92 89 00 	sts	0x0089, r1	; 0x800089 <__TEXT_REGION_LENGTH__+0x7e0089>
 d9c:	10 92 88 00 	sts	0x0088, r1	; 0x800088 <__TEXT_REGION_LENGTH__+0x7e0088>
 da0:	08 95       	ret
 da2:	63 30       	cpi	r22, 0x03	; 3
 da4:	71 05       	cpc	r23, r1
 da6:	c1 f4       	brne	.+48     	; 0xdd8 <_ZN3MCU7Setting10beginTimerEii+0x146>
 da8:	61 e0       	ldi	r22, 0x01	; 1
 daa:	84 e0       	ldi	r24, 0x04	; 4
 dac:	90 e0       	ldi	r25, 0x00	; 0
 dae:	35 df       	rcall	.-406    	; 0xc1a <_ZN3MCU9insertBitEib>
 db0:	ed e7       	ldi	r30, 0x7D	; 125
 db2:	f0 e0       	ldi	r31, 0x00	; 0
 db4:	90 81       	ld	r25, Z
 db6:	89 0f       	add	r24, r25
 db8:	80 83       	st	Z, r24
 dba:	10 92 8b 00 	sts	0x008B, r1	; 0x80008b <__TEXT_REGION_LENGTH__+0x7e008b>
 dbe:	8d e0       	ldi	r24, 0x0D	; 13
 dc0:	80 93 8a 00 	sts	0x008A, r24	; 0x80008a <__TEXT_REGION_LENGTH__+0x7e008a>
 dc4:	10 92 89 00 	sts	0x0089, r1	; 0x800089 <__TEXT_REGION_LENGTH__+0x7e0089>
 dc8:	10 92 88 00 	sts	0x0088, r1	; 0x800088 <__TEXT_REGION_LENGTH__+0x7e0088>
 dcc:	8d e3       	ldi	r24, 0x3D	; 61
 dce:	80 93 87 00 	sts	0x0087, r24	; 0x800087 <__TEXT_REGION_LENGTH__+0x7e0087>
 dd2:	89 e0       	ldi	r24, 0x09	; 9
 dd4:	80 93 86 00 	sts	0x0086, r24	; 0x800086 <__TEXT_REGION_LENGTH__+0x7e0086>
 dd8:	08 95       	ret

00000dda <_ZN2SW4initEv>:
 dda:	dc 01       	movw	r26, r24
 ddc:	ed 91       	ld	r30, X+
 dde:	fc 91       	ld	r31, X
 de0:	11 97       	sbiw	r26, 0x01	; 1
 de2:	e7 30       	cpi	r30, 0x07	; 7
 de4:	f1 05       	cpc	r31, r1
 de6:	a0 f5       	brcc	.+104    	; 0xe50 <_ZN2SW4initEv+0x76>
 de8:	e5 5a       	subi	r30, 0xA5	; 165
 dea:	ff 4f       	sbci	r31, 0xFF	; 255
 dec:	7d c0       	rjmp	.+250    	; 0xee8 <__tablejump2__>
 dee:	89 b3       	in	r24, 0x19	; 25
 df0:	90 e0       	ldi	r25, 0x00	; 0
 df2:	15 96       	adiw	r26, 0x05	; 5
 df4:	9c 93       	st	X, r25
 df6:	8e 93       	st	-X, r24
 df8:	14 97       	sbiw	r26, 0x04	; 4
 dfa:	2a c0       	rjmp	.+84     	; 0xe50 <_ZN2SW4initEv+0x76>
 dfc:	86 b3       	in	r24, 0x16	; 22
 dfe:	90 e0       	ldi	r25, 0x00	; 0
 e00:	15 96       	adiw	r26, 0x05	; 5
 e02:	9c 93       	st	X, r25
 e04:	8e 93       	st	-X, r24
 e06:	14 97       	sbiw	r26, 0x04	; 4
 e08:	23 c0       	rjmp	.+70     	; 0xe50 <_ZN2SW4initEv+0x76>
 e0a:	83 b3       	in	r24, 0x13	; 19
 e0c:	90 e0       	ldi	r25, 0x00	; 0
 e0e:	15 96       	adiw	r26, 0x05	; 5
 e10:	9c 93       	st	X, r25
 e12:	8e 93       	st	-X, r24
 e14:	14 97       	sbiw	r26, 0x04	; 4
 e16:	1c c0       	rjmp	.+56     	; 0xe50 <_ZN2SW4initEv+0x76>
 e18:	80 b3       	in	r24, 0x10	; 16
 e1a:	90 e0       	ldi	r25, 0x00	; 0
 e1c:	15 96       	adiw	r26, 0x05	; 5
 e1e:	9c 93       	st	X, r25
 e20:	8e 93       	st	-X, r24
 e22:	14 97       	sbiw	r26, 0x04	; 4
 e24:	15 c0       	rjmp	.+42     	; 0xe50 <_ZN2SW4initEv+0x76>
 e26:	81 b1       	in	r24, 0x01	; 1
 e28:	90 e0       	ldi	r25, 0x00	; 0
 e2a:	15 96       	adiw	r26, 0x05	; 5
 e2c:	9c 93       	st	X, r25
 e2e:	8e 93       	st	-X, r24
 e30:	14 97       	sbiw	r26, 0x04	; 4
 e32:	0e c0       	rjmp	.+28     	; 0xe50 <_ZN2SW4initEv+0x76>
 e34:	80 b1       	in	r24, 0x00	; 0
 e36:	90 e0       	ldi	r25, 0x00	; 0
 e38:	15 96       	adiw	r26, 0x05	; 5
 e3a:	9c 93       	st	X, r25
 e3c:	8e 93       	st	-X, r24
 e3e:	14 97       	sbiw	r26, 0x04	; 4
 e40:	07 c0       	rjmp	.+14     	; 0xe50 <_ZN2SW4initEv+0x76>
 e42:	80 91 63 00 	lds	r24, 0x0063	; 0x800063 <__TEXT_REGION_LENGTH__+0x7e0063>
 e46:	90 e0       	ldi	r25, 0x00	; 0
 e48:	15 96       	adiw	r26, 0x05	; 5
 e4a:	9c 93       	st	X, r25
 e4c:	8e 93       	st	-X, r24
 e4e:	14 97       	sbiw	r26, 0x04	; 4
 e50:	12 96       	adiw	r26, 0x02	; 2
 e52:	8d 91       	ld	r24, X+
 e54:	9c 91       	ld	r25, X
 e56:	13 97       	sbiw	r26, 0x03	; 3
 e58:	81 30       	cpi	r24, 0x01	; 1
 e5a:	91 05       	cpc	r25, r1
 e5c:	e9 f0       	breq	.+58     	; 0xe98 <_ZN2SW4initEv+0xbe>
 e5e:	18 f0       	brcs	.+6      	; 0xe66 <_ZN2SW4initEv+0x8c>
 e60:	02 97       	sbiw	r24, 0x02	; 2
 e62:	99 f1       	breq	.+102    	; 0xeca <_ZN2SW4initEv+0xf0>
 e64:	08 95       	ret
 e66:	16 96       	adiw	r26, 0x06	; 6
 e68:	2d 91       	ld	r18, X+
 e6a:	3c 91       	ld	r19, X
 e6c:	17 97       	sbiw	r26, 0x07	; 7
 e6e:	14 96       	adiw	r26, 0x04	; 4
 e70:	8d 91       	ld	r24, X+
 e72:	9c 91       	ld	r25, X
 e74:	15 97       	sbiw	r26, 0x05	; 5
 e76:	80 95       	com	r24
 e78:	90 95       	com	r25
 e7a:	82 23       	and	r24, r18
 e7c:	93 23       	and	r25, r19
 e7e:	19 96       	adiw	r26, 0x09	; 9
 e80:	9c 93       	st	X, r25
 e82:	8e 93       	st	-X, r24
 e84:	18 97       	sbiw	r26, 0x08	; 8
 e86:	14 96       	adiw	r26, 0x04	; 4
 e88:	8d 91       	ld	r24, X+
 e8a:	9c 91       	ld	r25, X
 e8c:	15 97       	sbiw	r26, 0x05	; 5
 e8e:	17 96       	adiw	r26, 0x07	; 7
 e90:	9c 93       	st	X, r25
 e92:	8e 93       	st	-X, r24
 e94:	16 97       	sbiw	r26, 0x06	; 6
 e96:	08 95       	ret
 e98:	16 96       	adiw	r26, 0x06	; 6
 e9a:	2d 91       	ld	r18, X+
 e9c:	3c 91       	ld	r19, X
 e9e:	17 97       	sbiw	r26, 0x07	; 7
 ea0:	14 96       	adiw	r26, 0x04	; 4
 ea2:	8d 91       	ld	r24, X+
 ea4:	9c 91       	ld	r25, X
 ea6:	15 97       	sbiw	r26, 0x05	; 5
 ea8:	82 23       	and	r24, r18
 eaa:	93 23       	and	r25, r19
 eac:	19 96       	adiw	r26, 0x09	; 9
 eae:	9c 93       	st	X, r25
 eb0:	8e 93       	st	-X, r24
 eb2:	18 97       	sbiw	r26, 0x08	; 8
 eb4:	14 96       	adiw	r26, 0x04	; 4
 eb6:	8d 91       	ld	r24, X+
 eb8:	9c 91       	ld	r25, X
 eba:	15 97       	sbiw	r26, 0x05	; 5
 ebc:	80 95       	com	r24
 ebe:	90 95       	com	r25
 ec0:	17 96       	adiw	r26, 0x07	; 7
 ec2:	9c 93       	st	X, r25
 ec4:	8e 93       	st	-X, r24
 ec6:	16 97       	sbiw	r26, 0x06	; 6
 ec8:	08 95       	ret
 eca:	14 96       	adiw	r26, 0x04	; 4
 ecc:	2d 91       	ld	r18, X+
 ece:	3c 91       	ld	r19, X
 ed0:	15 97       	sbiw	r26, 0x05	; 5
 ed2:	1a 96       	adiw	r26, 0x0a	; 10
 ed4:	8d 91       	ld	r24, X+
 ed6:	9c 91       	ld	r25, X
 ed8:	1b 97       	sbiw	r26, 0x0b	; 11
 eda:	82 23       	and	r24, r18
 edc:	93 23       	and	r25, r19
 ede:	19 96       	adiw	r26, 0x09	; 9
 ee0:	9c 93       	st	X, r25
 ee2:	8e 93       	st	-X, r24
 ee4:	18 97       	sbiw	r26, 0x08	; 8
 ee6:	08 95       	ret

00000ee8 <__tablejump2__>:
 ee8:	ee 0f       	add	r30, r30
 eea:	ff 1f       	adc	r31, r31
 eec:	00 24       	eor	r0, r0
 eee:	00 1c       	adc	r0, r0
 ef0:	0b be       	out	0x3b, r0	; 59
 ef2:	07 90       	elpm	r0, Z+
 ef4:	f6 91       	elpm	r31, Z
 ef6:	e0 2d       	mov	r30, r0
 ef8:	09 94       	ijmp

00000efa <_exit>:
 efa:	f8 94       	cli

00000efc <__stop_program>:
 efc:	ff cf       	rjmp	.-2      	; 0xefc <__stop_program>
