
ATmega128.elf:     file format elf32-avr

Sections:
Idx Name          Size      VMA       LMA       File off  Algn
  0 .data         00000028  00800100  000004ea  0000055e  2**0
                  CONTENTS, ALLOC, LOAD, DATA
  1 .text         000004ea  00000000  00000000  00000074  2**1
                  CONTENTS, ALLOC, LOAD, READONLY, CODE
  2 .comment      00000030  00000000  00000000  00000586  2**0
                  CONTENTS, READONLY
  3 .note.gnu.avr.deviceinfo 0000003c  00000000  00000000  000005b8  2**2
                  CONTENTS, READONLY
  4 .debug_aranges 00000080  00000000  00000000  000005f4  2**0
                  CONTENTS, READONLY, DEBUGGING
  5 .debug_info   000016cd  00000000  00000000  00000674  2**0
                  CONTENTS, READONLY, DEBUGGING
  6 .debug_abbrev 00000a7f  00000000  00000000  00001d41  2**0
                  CONTENTS, READONLY, DEBUGGING
  7 .debug_line   000006ea  00000000  00000000  000027c0  2**0
                  CONTENTS, READONLY, DEBUGGING
  8 .debug_frame  000001c4  00000000  00000000  00002eac  2**2
                  CONTENTS, READONLY, DEBUGGING
  9 .debug_str    00000753  00000000  00000000  00003070  2**0
                  CONTENTS, READONLY, DEBUGGING
 10 .debug_loc    00000b00  00000000  00000000  000037c3  2**0
                  CONTENTS, READONLY, DEBUGGING
 11 .debug_ranges 00000070  00000000  00000000  000042c3  2**0
                  CONTENTS, READONLY, DEBUGGING

Disassembly of section .text:

00000000 <__vectors>:
   0:	45 c0       	rjmp	.+138    	; 0x8c <__ctors_end>
   2:	00 00       	nop
   4:	58 c0       	rjmp	.+176    	; 0xb6 <__bad_interrupt>
   6:	00 00       	nop
   8:	56 c0       	rjmp	.+172    	; 0xb6 <__bad_interrupt>
   a:	00 00       	nop
   c:	54 c0       	rjmp	.+168    	; 0xb6 <__bad_interrupt>
   e:	00 00       	nop
  10:	52 c0       	rjmp	.+164    	; 0xb6 <__bad_interrupt>
  12:	00 00       	nop
  14:	50 c0       	rjmp	.+160    	; 0xb6 <__bad_interrupt>
  16:	00 00       	nop
  18:	4e c0       	rjmp	.+156    	; 0xb6 <__bad_interrupt>
  1a:	00 00       	nop
  1c:	4c c0       	rjmp	.+152    	; 0xb6 <__bad_interrupt>
  1e:	00 00       	nop
  20:	4a c0       	rjmp	.+148    	; 0xb6 <__bad_interrupt>
  22:	00 00       	nop
  24:	48 c0       	rjmp	.+144    	; 0xb6 <__bad_interrupt>
  26:	00 00       	nop
  28:	46 c0       	rjmp	.+140    	; 0xb6 <__bad_interrupt>
  2a:	00 00       	nop
  2c:	44 c0       	rjmp	.+136    	; 0xb6 <__bad_interrupt>
  2e:	00 00       	nop
  30:	42 c0       	rjmp	.+132    	; 0xb6 <__bad_interrupt>
  32:	00 00       	nop
  34:	40 c0       	rjmp	.+128    	; 0xb6 <__bad_interrupt>
  36:	00 00       	nop
  38:	3e c0       	rjmp	.+124    	; 0xb6 <__bad_interrupt>
  3a:	00 00       	nop
  3c:	3c c0       	rjmp	.+120    	; 0xb6 <__bad_interrupt>
  3e:	00 00       	nop
  40:	3a c0       	rjmp	.+116    	; 0xb6 <__bad_interrupt>
  42:	00 00       	nop
  44:	38 c0       	rjmp	.+112    	; 0xb6 <__bad_interrupt>
  46:	00 00       	nop
  48:	36 c0       	rjmp	.+108    	; 0xb6 <__bad_interrupt>
  4a:	00 00       	nop
  4c:	34 c0       	rjmp	.+104    	; 0xb6 <__bad_interrupt>
  4e:	00 00       	nop
  50:	32 c0       	rjmp	.+100    	; 0xb6 <__bad_interrupt>
  52:	00 00       	nop
  54:	30 c0       	rjmp	.+96     	; 0xb6 <__bad_interrupt>
  56:	00 00       	nop
  58:	2e c0       	rjmp	.+92     	; 0xb6 <__bad_interrupt>
  5a:	00 00       	nop
  5c:	2c c0       	rjmp	.+88     	; 0xb6 <__bad_interrupt>
  5e:	00 00       	nop
  60:	2a c0       	rjmp	.+84     	; 0xb6 <__bad_interrupt>
  62:	00 00       	nop
  64:	28 c0       	rjmp	.+80     	; 0xb6 <__bad_interrupt>
  66:	00 00       	nop
  68:	26 c0       	rjmp	.+76     	; 0xb6 <__bad_interrupt>
  6a:	00 00       	nop
  6c:	24 c0       	rjmp	.+72     	; 0xb6 <__bad_interrupt>
  6e:	00 00       	nop
  70:	22 c0       	rjmp	.+68     	; 0xb6 <__bad_interrupt>
  72:	00 00       	nop
  74:	20 c0       	rjmp	.+64     	; 0xb6 <__bad_interrupt>
  76:	00 00       	nop
  78:	1e c0       	rjmp	.+60     	; 0xb6 <__bad_interrupt>
  7a:	00 00       	nop
  7c:	1c c0       	rjmp	.+56     	; 0xb6 <__bad_interrupt>
  7e:	00 00       	nop
  80:	1a c0       	rjmp	.+52     	; 0xb6 <__bad_interrupt>
  82:	00 00       	nop
  84:	18 c0       	rjmp	.+48     	; 0xb6 <__bad_interrupt>
  86:	00 00       	nop
  88:	16 c0       	rjmp	.+44     	; 0xb6 <__bad_interrupt>
	...

0000008c <__ctors_end>:
  8c:	11 24       	eor	r1, r1
  8e:	1f be       	out	0x3f, r1	; 63
  90:	cf ef       	ldi	r28, 0xFF	; 255
  92:	d0 e1       	ldi	r29, 0x10	; 16
  94:	de bf       	out	0x3e, r29	; 62
  96:	cd bf       	out	0x3d, r28	; 61

00000098 <__do_copy_data>:
  98:	11 e0       	ldi	r17, 0x01	; 1
  9a:	a0 e0       	ldi	r26, 0x00	; 0
  9c:	b1 e0       	ldi	r27, 0x01	; 1
  9e:	ea ee       	ldi	r30, 0xEA	; 234
  a0:	f4 e0       	ldi	r31, 0x04	; 4
  a2:	00 e0       	ldi	r16, 0x00	; 0
  a4:	0b bf       	out	0x3b, r16	; 59
  a6:	02 c0       	rjmp	.+4      	; 0xac <__do_copy_data+0x14>
  a8:	07 90       	elpm	r0, Z+
  aa:	0d 92       	st	X+, r0
  ac:	a8 32       	cpi	r26, 0x28	; 40
  ae:	b1 07       	cpc	r27, r17
  b0:	d9 f7       	brne	.-10     	; 0xa8 <__do_copy_data+0x10>
  b2:	c3 d1       	rcall	.+902    	; 0x43a <main>
  b4:	18 c2       	rjmp	.+1072   	; 0x4e6 <_exit>

000000b6 <__bad_interrupt>:
  b6:	a4 cf       	rjmp	.-184    	; 0x0 <__vectors>

000000b8 <_Z9insertBitib>:
	{
		changeLine(2, 1);
		writeString("                ");
	}
	
}
  b8:	66 23       	and	r22, r22
  ba:	51 f0       	breq	.+20     	; 0xd0 <_Z9insertBitib+0x18>
  bc:	21 e0       	ldi	r18, 0x01	; 1
  be:	30 e0       	ldi	r19, 0x00	; 0
  c0:	a9 01       	movw	r20, r18
  c2:	02 c0       	rjmp	.+4      	; 0xc8 <_Z9insertBitib+0x10>
  c4:	44 0f       	add	r20, r20
  c6:	55 1f       	adc	r21, r21
  c8:	8a 95       	dec	r24
  ca:	e2 f7       	brpl	.-8      	; 0xc4 <_Z9insertBitib+0xc>
  cc:	ca 01       	movw	r24, r20
  ce:	08 95       	ret
  d0:	80 e0       	ldi	r24, 0x00	; 0
  d2:	90 e0       	ldi	r25, 0x00	; 0
  d4:	08 95       	ret

000000d6 <_ZN7Setting9beginPortEib>:
  d6:	66 23       	and	r22, r22
  d8:	11 f0       	breq	.+4      	; 0xde <_ZN7Setting9beginPortEib+0x8>
  da:	2f ef       	ldi	r18, 0xFF	; 255
  dc:	01 c0       	rjmp	.+2      	; 0xe0 <_ZN7Setting9beginPortEib+0xa>
  de:	20 e0       	ldi	r18, 0x00	; 0
  e0:	82 30       	cpi	r24, 0x02	; 2
  e2:	91 05       	cpc	r25, r1
  e4:	99 f0       	breq	.+38     	; 0x10c <_ZN7Setting9beginPortEib+0x36>
  e6:	2c f4       	brge	.+10     	; 0xf2 <_ZN7Setting9beginPortEib+0x1c>
  e8:	00 97       	sbiw	r24, 0x00	; 0
  ea:	51 f0       	breq	.+20     	; 0x100 <_ZN7Setting9beginPortEib+0x2a>
  ec:	01 97       	sbiw	r24, 0x01	; 1
  ee:	59 f0       	breq	.+22     	; 0x106 <_ZN7Setting9beginPortEib+0x30>
  f0:	08 95       	ret
  f2:	84 30       	cpi	r24, 0x04	; 4
  f4:	91 05       	cpc	r25, r1
  f6:	81 f0       	breq	.+32     	; 0x118 <_ZN7Setting9beginPortEib+0x42>
  f8:	64 f0       	brlt	.+24     	; 0x112 <_ZN7Setting9beginPortEib+0x3c>
  fa:	05 97       	sbiw	r24, 0x05	; 5
  fc:	81 f0       	breq	.+32     	; 0x11e <_ZN7Setting9beginPortEib+0x48>
  fe:	08 95       	ret
 100:	2a bb       	out	0x1a, r18	; 26
 102:	1b ba       	out	0x1b, r1	; 27
 104:	08 95       	ret
 106:	27 bb       	out	0x17, r18	; 23
 108:	18 ba       	out	0x18, r1	; 24
 10a:	08 95       	ret
 10c:	24 bb       	out	0x14, r18	; 20
 10e:	15 ba       	out	0x15, r1	; 21
 110:	08 95       	ret
 112:	21 bb       	out	0x11, r18	; 17
 114:	12 ba       	out	0x12, r1	; 18
 116:	08 95       	ret
 118:	22 b9       	out	0x02, r18	; 2
 11a:	13 b8       	out	0x03, r1	; 3
 11c:	08 95       	ret
 11e:	20 93 61 00 	sts	0x0061, r18	; 0x800061 <__TEXT_REGION_LENGTH__+0x7e0061>
 122:	10 92 62 00 	sts	0x0062, r1	; 0x800062 <__TEXT_REGION_LENGTH__+0x7e0062>
 126:	08 95       	ret

00000128 <_ZN2SW6initSWEv>:
 128:	fc 01       	movw	r30, r24
 12a:	80 81       	ld	r24, Z
 12c:	91 81       	ldd	r25, Z+1	; 0x01
 12e:	82 30       	cpi	r24, 0x02	; 2
 130:	91 05       	cpc	r25, r1
 132:	b9 f0       	breq	.+46     	; 0x162 <_ZN2SW6initSWEv+0x3a>
 134:	28 f4       	brcc	.+10     	; 0x140 <_ZN2SW6initSWEv+0x18>
 136:	00 97       	sbiw	r24, 0x00	; 0
 138:	51 f0       	breq	.+20     	; 0x14e <_ZN2SW6initSWEv+0x26>
 13a:	01 97       	sbiw	r24, 0x01	; 1
 13c:	69 f0       	breq	.+26     	; 0x158 <_ZN2SW6initSWEv+0x30>
 13e:	24 c0       	rjmp	.+72     	; 0x188 <_ZN2SW6initSWEv+0x60>
 140:	84 30       	cpi	r24, 0x04	; 4
 142:	91 05       	cpc	r25, r1
 144:	c1 f0       	breq	.+48     	; 0x176 <_ZN2SW6initSWEv+0x4e>
 146:	90 f0       	brcs	.+36     	; 0x16c <_ZN2SW6initSWEv+0x44>
 148:	05 97       	sbiw	r24, 0x05	; 5
 14a:	d1 f0       	breq	.+52     	; 0x180 <_ZN2SW6initSWEv+0x58>
 14c:	1d c0       	rjmp	.+58     	; 0x188 <_ZN2SW6initSWEv+0x60>
 14e:	89 b3       	in	r24, 0x19	; 25
 150:	90 e0       	ldi	r25, 0x00	; 0
 152:	94 83       	std	Z+4, r25	; 0x04
 154:	83 83       	std	Z+3, r24	; 0x03
 156:	18 c0       	rjmp	.+48     	; 0x188 <_ZN2SW6initSWEv+0x60>
 158:	86 b3       	in	r24, 0x16	; 22
 15a:	90 e0       	ldi	r25, 0x00	; 0
 15c:	94 83       	std	Z+4, r25	; 0x04
 15e:	83 83       	std	Z+3, r24	; 0x03
 160:	13 c0       	rjmp	.+38     	; 0x188 <_ZN2SW6initSWEv+0x60>
 162:	83 b3       	in	r24, 0x13	; 19
 164:	90 e0       	ldi	r25, 0x00	; 0
 166:	94 83       	std	Z+4, r25	; 0x04
 168:	83 83       	std	Z+3, r24	; 0x03
 16a:	0e c0       	rjmp	.+28     	; 0x188 <_ZN2SW6initSWEv+0x60>
 16c:	80 b3       	in	r24, 0x10	; 16
 16e:	90 e0       	ldi	r25, 0x00	; 0
 170:	94 83       	std	Z+4, r25	; 0x04
 172:	83 83       	std	Z+3, r24	; 0x03
 174:	09 c0       	rjmp	.+18     	; 0x188 <_ZN2SW6initSWEv+0x60>
 176:	81 b1       	in	r24, 0x01	; 1
 178:	90 e0       	ldi	r25, 0x00	; 0
 17a:	94 83       	std	Z+4, r25	; 0x04
 17c:	83 83       	std	Z+3, r24	; 0x03
 17e:	04 c0       	rjmp	.+8      	; 0x188 <_ZN2SW6initSWEv+0x60>
 180:	80 b1       	in	r24, 0x00	; 0
 182:	90 e0       	ldi	r25, 0x00	; 0
 184:	94 83       	std	Z+4, r25	; 0x04
 186:	83 83       	std	Z+3, r24	; 0x03
 188:	82 81       	ldd	r24, Z+2	; 0x02
 18a:	88 23       	and	r24, r24
 18c:	79 f0       	breq	.+30     	; 0x1ac <_ZN2SW6initSWEv+0x84>
 18e:	25 81       	ldd	r18, Z+5	; 0x05
 190:	36 81       	ldd	r19, Z+6	; 0x06
 192:	83 81       	ldd	r24, Z+3	; 0x03
 194:	94 81       	ldd	r25, Z+4	; 0x04
 196:	80 95       	com	r24
 198:	90 95       	com	r25
 19a:	82 23       	and	r24, r18
 19c:	93 23       	and	r25, r19
 19e:	90 87       	std	Z+8, r25	; 0x08
 1a0:	87 83       	std	Z+7, r24	; 0x07
 1a2:	83 81       	ldd	r24, Z+3	; 0x03
 1a4:	94 81       	ldd	r25, Z+4	; 0x04
 1a6:	96 83       	std	Z+6, r25	; 0x06
 1a8:	85 83       	std	Z+5, r24	; 0x05
 1aa:	08 95       	ret
 1ac:	25 81       	ldd	r18, Z+5	; 0x05
 1ae:	36 81       	ldd	r19, Z+6	; 0x06
 1b0:	83 81       	ldd	r24, Z+3	; 0x03
 1b2:	94 81       	ldd	r25, Z+4	; 0x04
 1b4:	82 23       	and	r24, r18
 1b6:	93 23       	and	r25, r19
 1b8:	90 87       	std	Z+8, r25	; 0x08
 1ba:	87 83       	std	Z+7, r24	; 0x07
 1bc:	83 81       	ldd	r24, Z+3	; 0x03
 1be:	94 81       	ldd	r25, Z+4	; 0x04
 1c0:	80 95       	com	r24
 1c2:	90 95       	com	r25
 1c4:	96 83       	std	Z+6, r25	; 0x06
 1c6:	85 83       	std	Z+5, r24	; 0x05
 1c8:	08 95       	ret

000001ca <_ZN3LCD10attachPortEi>:
 1ca:	fc 01       	movw	r30, r24
 1cc:	80 81       	ld	r24, Z
 1ce:	91 81       	ldd	r25, Z+1	; 0x01
 1d0:	82 30       	cpi	r24, 0x02	; 2
 1d2:	91 05       	cpc	r25, r1
 1d4:	89 f0       	breq	.+34     	; 0x1f8 <_ZN3LCD10attachPortEi+0x2e>
 1d6:	28 f4       	brcc	.+10     	; 0x1e2 <_ZN3LCD10attachPortEi+0x18>
 1d8:	00 97       	sbiw	r24, 0x00	; 0
 1da:	51 f0       	breq	.+20     	; 0x1f0 <_ZN3LCD10attachPortEi+0x26>
 1dc:	01 97       	sbiw	r24, 0x01	; 1
 1de:	51 f0       	breq	.+20     	; 0x1f4 <_ZN3LCD10attachPortEi+0x2a>
 1e0:	08 95       	ret
 1e2:	84 30       	cpi	r24, 0x04	; 4
 1e4:	91 05       	cpc	r25, r1
 1e6:	61 f0       	breq	.+24     	; 0x200 <_ZN3LCD10attachPortEi+0x36>
 1e8:	48 f0       	brcs	.+18     	; 0x1fc <_ZN3LCD10attachPortEi+0x32>
 1ea:	05 97       	sbiw	r24, 0x05	; 5
 1ec:	59 f0       	breq	.+22     	; 0x204 <_ZN3LCD10attachPortEi+0x3a>
 1ee:	08 95       	ret
 1f0:	6b bb       	out	0x1b, r22	; 27
 1f2:	08 95       	ret
 1f4:	68 bb       	out	0x18, r22	; 24
 1f6:	08 95       	ret
 1f8:	65 bb       	out	0x15, r22	; 21
 1fa:	08 95       	ret
 1fc:	62 bb       	out	0x12, r22	; 18
 1fe:	08 95       	ret
 200:	63 b9       	out	0x03, r22	; 3
 202:	08 95       	ret
 204:	60 93 62 00 	sts	0x0062, r22	; 0x800062 <__TEXT_REGION_LENGTH__+0x7e0062>
 208:	08 95       	ret

0000020a <_ZN3LCD14setInstructionEi>:
 20a:	af 92       	push	r10
 20c:	bf 92       	push	r11
 20e:	cf 92       	push	r12
 210:	df 92       	push	r13
 212:	ef 92       	push	r14
 214:	ff 92       	push	r15
 216:	0f 93       	push	r16
 218:	1f 93       	push	r17
 21a:	cf 93       	push	r28
 21c:	df 93       	push	r29
 21e:	8c 01       	movw	r16, r24
 220:	eb 01       	movw	r28, r22
 222:	61 e0       	ldi	r22, 0x01	; 1
 224:	87 e0       	ldi	r24, 0x07	; 7
 226:	90 e0       	ldi	r25, 0x00	; 0
 228:	47 df       	rcall	.-370    	; 0xb8 <_Z9insertBitib>
 22a:	7c 01       	movw	r14, r24
 22c:	60 e0       	ldi	r22, 0x00	; 0
 22e:	87 e0       	ldi	r24, 0x07	; 7
 230:	90 e0       	ldi	r25, 0x00	; 0
 232:	42 df       	rcall	.-380    	; 0xb8 <_Z9insertBitib>
 234:	6c 01       	movw	r12, r24
 236:	8f e3       	ldi	r24, 0x3F	; 63
 238:	9f e1       	ldi	r25, 0x1F	; 31
 23a:	01 97       	sbiw	r24, 0x01	; 1
 23c:	f1 f7       	brne	.-4      	; 0x23a <_ZN3LCD14setInstructionEi+0x30>
 23e:	00 c0       	rjmp	.+0      	; 0x240 <_ZN3LCD14setInstructionEi+0x36>
 240:	00 00       	nop
 242:	5e 01       	movw	r10, r28
 244:	b5 94       	asr	r11
 246:	a7 94       	ror	r10
 248:	b5 94       	asr	r11
 24a:	a7 94       	ror	r10
 24c:	b5 94       	asr	r11
 24e:	a7 94       	ror	r10
 250:	b5 94       	asr	r11
 252:	a7 94       	ror	r10
 254:	9f e0       	ldi	r25, 0x0F	; 15
 256:	a9 22       	and	r10, r25
 258:	bb 24       	eor	r11, r11
 25a:	b7 01       	movw	r22, r14
 25c:	6a 29       	or	r22, r10
 25e:	7b 29       	or	r23, r11
 260:	c8 01       	movw	r24, r16
 262:	b3 df       	rcall	.-154    	; 0x1ca <_ZN3LCD10attachPortEi>
 264:	85 e0       	ldi	r24, 0x05	; 5
 266:	8a 95       	dec	r24
 268:	f1 f7       	brne	.-4      	; 0x266 <_ZN3LCD14setInstructionEi+0x5c>
 26a:	00 00       	nop
 26c:	b6 01       	movw	r22, r12
 26e:	6a 29       	or	r22, r10
 270:	7b 29       	or	r23, r11
 272:	c8 01       	movw	r24, r16
 274:	aa df       	rcall	.-172    	; 0x1ca <_ZN3LCD10attachPortEi>
 276:	95 e0       	ldi	r25, 0x05	; 5
 278:	9a 95       	dec	r25
 27a:	f1 f7       	brne	.-4      	; 0x278 <_ZN3LCD14setInstructionEi+0x6e>
 27c:	00 00       	nop
 27e:	cf 70       	andi	r28, 0x0F	; 15
 280:	dd 27       	eor	r29, r29
 282:	b7 01       	movw	r22, r14
 284:	6c 2b       	or	r22, r28
 286:	7d 2b       	or	r23, r29
 288:	c8 01       	movw	r24, r16
 28a:	9f df       	rcall	.-194    	; 0x1ca <_ZN3LCD10attachPortEi>
 28c:	85 e0       	ldi	r24, 0x05	; 5
 28e:	8a 95       	dec	r24
 290:	f1 f7       	brne	.-4      	; 0x28e <_ZN3LCD14setInstructionEi+0x84>
 292:	00 00       	nop
 294:	b6 01       	movw	r22, r12
 296:	6c 2b       	or	r22, r28
 298:	7d 2b       	or	r23, r29
 29a:	c8 01       	movw	r24, r16
 29c:	96 df       	rcall	.-212    	; 0x1ca <_ZN3LCD10attachPortEi>
 29e:	95 e0       	ldi	r25, 0x05	; 5
 2a0:	9a 95       	dec	r25
 2a2:	f1 f7       	brne	.-4      	; 0x2a0 <_ZN3LCD14setInstructionEi+0x96>
 2a4:	00 00       	nop
 2a6:	df 91       	pop	r29
 2a8:	cf 91       	pop	r28
 2aa:	1f 91       	pop	r17
 2ac:	0f 91       	pop	r16
 2ae:	ff 90       	pop	r15
 2b0:	ef 90       	pop	r14
 2b2:	df 90       	pop	r13
 2b4:	cf 90       	pop	r12
 2b6:	bf 90       	pop	r11
 2b8:	af 90       	pop	r10
 2ba:	08 95       	ret

000002bc <_ZN3LCD7setDataEi>:
 2bc:	af 92       	push	r10
 2be:	bf 92       	push	r11
 2c0:	cf 92       	push	r12
 2c2:	df 92       	push	r13
 2c4:	ef 92       	push	r14
 2c6:	ff 92       	push	r15
 2c8:	0f 93       	push	r16
 2ca:	1f 93       	push	r17
 2cc:	cf 93       	push	r28
 2ce:	df 93       	push	r29
 2d0:	7c 01       	movw	r14, r24
 2d2:	eb 01       	movw	r28, r22
 2d4:	61 e0       	ldi	r22, 0x01	; 1
 2d6:	87 e0       	ldi	r24, 0x07	; 7
 2d8:	90 e0       	ldi	r25, 0x00	; 0
 2da:	ee de       	rcall	.-548    	; 0xb8 <_Z9insertBitib>
 2dc:	8c 01       	movw	r16, r24
 2de:	61 e0       	ldi	r22, 0x01	; 1
 2e0:	85 e0       	ldi	r24, 0x05	; 5
 2e2:	90 e0       	ldi	r25, 0x00	; 0
 2e4:	e9 de       	rcall	.-558    	; 0xb8 <_Z9insertBitib>
 2e6:	6c 01       	movw	r12, r24
 2e8:	08 2b       	or	r16, r24
 2ea:	19 2b       	or	r17, r25
 2ec:	60 e0       	ldi	r22, 0x00	; 0
 2ee:	87 e0       	ldi	r24, 0x07	; 7
 2f0:	90 e0       	ldi	r25, 0x00	; 0
 2f2:	e2 de       	rcall	.-572    	; 0xb8 <_Z9insertBitib>
 2f4:	c8 2a       	or	r12, r24
 2f6:	d9 2a       	or	r13, r25
 2f8:	8f e3       	ldi	r24, 0x3F	; 63
 2fa:	9f e1       	ldi	r25, 0x1F	; 31
 2fc:	01 97       	sbiw	r24, 0x01	; 1
 2fe:	f1 f7       	brne	.-4      	; 0x2fc <_ZN3LCD7setDataEi+0x40>
 300:	00 c0       	rjmp	.+0      	; 0x302 <_ZN3LCD7setDataEi+0x46>
 302:	00 00       	nop
 304:	5e 01       	movw	r10, r28
 306:	b5 94       	asr	r11
 308:	a7 94       	ror	r10
 30a:	b5 94       	asr	r11
 30c:	a7 94       	ror	r10
 30e:	b5 94       	asr	r11
 310:	a7 94       	ror	r10
 312:	b5 94       	asr	r11
 314:	a7 94       	ror	r10
 316:	9f e0       	ldi	r25, 0x0F	; 15
 318:	a9 22       	and	r10, r25
 31a:	bb 24       	eor	r11, r11
 31c:	b8 01       	movw	r22, r16
 31e:	6a 29       	or	r22, r10
 320:	7b 29       	or	r23, r11
 322:	c7 01       	movw	r24, r14
 324:	52 df       	rcall	.-348    	; 0x1ca <_ZN3LCD10attachPortEi>
 326:	85 e0       	ldi	r24, 0x05	; 5
 328:	8a 95       	dec	r24
 32a:	f1 f7       	brne	.-4      	; 0x328 <_ZN3LCD7setDataEi+0x6c>
 32c:	00 00       	nop
 32e:	b6 01       	movw	r22, r12
 330:	6a 29       	or	r22, r10
 332:	7b 29       	or	r23, r11
 334:	c7 01       	movw	r24, r14
 336:	49 df       	rcall	.-366    	; 0x1ca <_ZN3LCD10attachPortEi>
 338:	95 e0       	ldi	r25, 0x05	; 5
 33a:	9a 95       	dec	r25
 33c:	f1 f7       	brne	.-4      	; 0x33a <_ZN3LCD7setDataEi+0x7e>
 33e:	00 00       	nop
 340:	cf 70       	andi	r28, 0x0F	; 15
 342:	dd 27       	eor	r29, r29
 344:	b8 01       	movw	r22, r16
 346:	6c 2b       	or	r22, r28
 348:	7d 2b       	or	r23, r29
 34a:	c7 01       	movw	r24, r14
 34c:	3e df       	rcall	.-388    	; 0x1ca <_ZN3LCD10attachPortEi>
 34e:	85 e0       	ldi	r24, 0x05	; 5
 350:	8a 95       	dec	r24
 352:	f1 f7       	brne	.-4      	; 0x350 <_ZN3LCD7setDataEi+0x94>
 354:	00 00       	nop
 356:	b6 01       	movw	r22, r12
 358:	6c 2b       	or	r22, r28
 35a:	7d 2b       	or	r23, r29
 35c:	c7 01       	movw	r24, r14
 35e:	35 df       	rcall	.-406    	; 0x1ca <_ZN3LCD10attachPortEi>
 360:	95 e0       	ldi	r25, 0x05	; 5
 362:	9a 95       	dec	r25
 364:	f1 f7       	brne	.-4      	; 0x362 <_ZN3LCD7setDataEi+0xa6>
 366:	00 00       	nop
 368:	df 91       	pop	r29
 36a:	cf 91       	pop	r28
 36c:	1f 91       	pop	r17
 36e:	0f 91       	pop	r16
 370:	ff 90       	pop	r15
 372:	ef 90       	pop	r14
 374:	df 90       	pop	r13
 376:	cf 90       	pop	r12
 378:	bf 90       	pop	r11
 37a:	af 90       	pop	r10
 37c:	08 95       	ret

0000037e <_ZN3LCD11writeStringEPKc>:
 37e:	0f 93       	push	r16
 380:	1f 93       	push	r17
 382:	cf 93       	push	r28
 384:	df 93       	push	r29
 386:	8c 01       	movw	r16, r24
 388:	eb 01       	movw	r28, r22
 38a:	68 81       	ld	r22, Y
 38c:	66 23       	and	r22, r22
 38e:	29 f0       	breq	.+10     	; 0x39a <_ZN3LCD11writeStringEPKc+0x1c>
 390:	70 e0       	ldi	r23, 0x00	; 0
 392:	c8 01       	movw	r24, r16
 394:	93 df       	rcall	.-218    	; 0x2bc <_ZN3LCD7setDataEi>
 396:	21 96       	adiw	r28, 0x01	; 1
 398:	f8 cf       	rjmp	.-16     	; 0x38a <_ZN3LCD11writeStringEPKc+0xc>
 39a:	df 91       	pop	r29
 39c:	cf 91       	pop	r28
 39e:	1f 91       	pop	r17
 3a0:	0f 91       	pop	r16
 3a2:	08 95       	ret

000003a4 <_ZN3LCD10changeLineEii>:
 3a4:	cf 92       	push	r12
 3a6:	df 92       	push	r13
 3a8:	ef 92       	push	r14
 3aa:	ff 92       	push	r15
 3ac:	0f 93       	push	r16
 3ae:	1f 93       	push	r17
 3b0:	cf 93       	push	r28
 3b2:	df 93       	push	r29
 3b4:	6c 01       	movw	r12, r24
 3b6:	8b 01       	movw	r16, r22
 3b8:	7a 01       	movw	r14, r20
 3ba:	c0 e0       	ldi	r28, 0x00	; 0
 3bc:	d0 e0       	ldi	r29, 0x00	; 0
 3be:	c0 31       	cpi	r28, 0x10	; 16
 3c0:	d1 05       	cpc	r29, r1
 3c2:	ec f4       	brge	.+58     	; 0x3fe <_ZN3LCD10changeLineEii+0x5a>
 3c4:	01 30       	cpi	r16, 0x01	; 1
 3c6:	11 05       	cpc	r17, r1
 3c8:	59 f4       	brne	.+22     	; 0x3e0 <_ZN3LCD10changeLineEii+0x3c>
 3ca:	ce 01       	movw	r24, r28
 3cc:	01 96       	adiw	r24, 0x01	; 1
 3ce:	8e 15       	cp	r24, r14
 3d0:	9f 05       	cpc	r25, r15
 3d2:	31 f4       	brne	.+12     	; 0x3e0 <_ZN3LCD10changeLineEii+0x3c>
 3d4:	be 01       	movw	r22, r28
 3d6:	60 58       	subi	r22, 0x80	; 128
 3d8:	7f 4f       	sbci	r23, 0xFF	; 255
 3da:	c6 01       	movw	r24, r12
 3dc:	16 df       	rcall	.-468    	; 0x20a <_ZN3LCD14setInstructionEi>
 3de:	0d c0       	rjmp	.+26     	; 0x3fa <_ZN3LCD10changeLineEii+0x56>
 3e0:	02 30       	cpi	r16, 0x02	; 2
 3e2:	11 05       	cpc	r17, r1
 3e4:	51 f4       	brne	.+20     	; 0x3fa <_ZN3LCD10changeLineEii+0x56>
 3e6:	ce 01       	movw	r24, r28
 3e8:	01 96       	adiw	r24, 0x01	; 1
 3ea:	e8 16       	cp	r14, r24
 3ec:	f9 06       	cpc	r15, r25
 3ee:	29 f4       	brne	.+10     	; 0x3fa <_ZN3LCD10changeLineEii+0x56>
 3f0:	be 01       	movw	r22, r28
 3f2:	60 54       	subi	r22, 0x40	; 64
 3f4:	7f 4f       	sbci	r23, 0xFF	; 255
 3f6:	c6 01       	movw	r24, r12
 3f8:	08 df       	rcall	.-496    	; 0x20a <_ZN3LCD14setInstructionEi>
 3fa:	21 96       	adiw	r28, 0x01	; 1
 3fc:	e0 cf       	rjmp	.-64     	; 0x3be <_ZN3LCD10changeLineEii+0x1a>
 3fe:	df 91       	pop	r29
 400:	cf 91       	pop	r28
 402:	1f 91       	pop	r17
 404:	0f 91       	pop	r16
 406:	ff 90       	pop	r15
 408:	ef 90       	pop	r14
 40a:	df 90       	pop	r13
 40c:	cf 90       	pop	r12
 40e:	08 95       	ret

00000410 <_ZN3LCD7initLCDEv>:
/*----------------------------------------//
			  Initialize LCD
//----------------------------------------*/

void LCD::initLCD (void)
{
 410:	cf 93       	push	r28
 412:	df 93       	push	r29
 414:	ec 01       	movw	r28, r24
	setInstruction(0x06);			// SET ENTRY		[ I/D = Right						S = Shift L	]
 416:	66 e0       	ldi	r22, 0x06	; 6
 418:	70 e0       	ldi	r23, 0x00	; 0
 41a:	f7 de       	rcall	.-530    	; 0x20a <_ZN3LCD14setInstructionEi>
	setInstruction(0x0c);			// CONTROL DISPLAY	[ D = Display H		C = Cursor L	B = Blink L ]
 41c:	6c e0       	ldi	r22, 0x0C	; 12
 41e:	70 e0       	ldi	r23, 0x00	; 0
 420:	ce 01       	movw	r24, r28
 422:	f3 de       	rcall	.-538    	; 0x20a <_ZN3LCD14setInstructionEi>
	setInstruction(0x28);			// SET FUNCTION		[ DL = 4 Bit		N = 2 LINE		F = 5 x 7	]
 424:	68 e2       	ldi	r22, 0x28	; 40
 426:	70 e0       	ldi	r23, 0x00	; 0
 428:	ce 01       	movw	r24, r28
 42a:	ef de       	rcall	.-546    	; 0x20a <_ZN3LCD14setInstructionEi>
	setInstruction(0x01);			// CLEAR DISPLAY ALL
 42c:	61 e0       	ldi	r22, 0x01	; 1
 42e:	70 e0       	ldi	r23, 0x00	; 0
 430:	ce 01       	movw	r24, r28
 432:	eb de       	rcall	.-554    	; 0x20a <_ZN3LCD14setInstructionEi>
}
 434:	df 91       	pop	r29
 436:	cf 91       	pop	r28
 438:	08 95       	ret

0000043a <main>:
/*========================================//
-------------   MAIN START   ---------------
//========================================*/

int main (void)
{
 43a:	cf 93       	push	r28
 43c:	df 93       	push	r29
 43e:	cd b7       	in	r28, 0x3d	; 61
 440:	de b7       	in	r29, 0x3e	; 62
 442:	2c 97       	sbiw	r28, 0x0c	; 12
 444:	0f b6       	in	r0, 0x3f	; 63
 446:	f8 94       	cli
 448:	de bf       	out	0x3e, r29	; 62
 44a:	0f be       	out	0x3f, r0	; 63
 44c:	cd bf       	out	0x3d, r28	; 61
	
    Setting::beginPort(A, OUT);
 44e:	61 e0       	ldi	r22, 0x01	; 1
 450:	80 e0       	ldi	r24, 0x00	; 0
 452:	90 e0       	ldi	r25, 0x00	; 0
 454:	40 de       	rcall	.-896    	; 0xd6 <_ZN7Setting9beginPortEib>
	Setting::beginPort(C, IN);
 456:	60 e0       	ldi	r22, 0x00	; 0
 458:	82 e0       	ldi	r24, 0x02	; 2
 45a:	90 e0       	ldi	r25, 0x00	; 0
 45c:	3c de       	rcall	.-904    	; 0xd6 <_ZN7Setting9beginPortEib>
	Setting::beginPort(F, OUT);
 45e:	61 e0       	ldi	r22, 0x01	; 1
 460:	85 e0       	ldi	r24, 0x05	; 5
 462:	90 e0       	ldi	r25, 0x00	; 0
 464:	38 de       	rcall	.-912    	; 0xd6 <_ZN7Setting9beginPortEib>
	volatile unsigned int m_newValue;
	volatile unsigned int m_oldValue;
	

public:
	void beginSW (int switchPort, bool isReversal) { m_SwitchPort = switchPort; m_isReversal = isReversal; }
 466:	82 e0       	ldi	r24, 0x02	; 2
 468:	90 e0       	ldi	r25, 0x00	; 0
 46a:	9a 83       	std	Y+2, r25	; 0x02
 46c:	89 83       	std	Y+1, r24	; 0x01
 46e:	11 e0       	ldi	r17, 0x01	; 1
 470:	1b 83       	std	Y+3, r17	; 0x03
	unsigned int m_LCDPort;
	bool m_isDataLong;

public:
	// PORT
	void beginLCD (int LCDPort, bool isDataLong) { m_LCDPort = LCDPort; m_isDataLong = isDataLong; }
 472:	85 e0       	ldi	r24, 0x05	; 5
 474:	90 e0       	ldi	r25, 0x00	; 0
 476:	9b 87       	std	Y+11, r25	; 0x0b
 478:	8a 87       	std	Y+10, r24	; 0x0a
	SW portC;
	LCD portF;
	
	portC.beginSW(C, ON);
	portF.beginLCD(F, HIGH);
	portF.initLCD();
 47a:	1c 87       	std	Y+12, r17	; 0x0c
 47c:	ce 01       	movw	r24, r28
 47e:	0a 96       	adiw	r24, 0x0a	; 10
	
	PORTA = 0x01;
 480:	c7 df       	rcall	.-114    	; 0x410 <_ZN3LCD7initLCDEv>
	
	
    while (true) 
    {
		portC.initSW();
 482:	1b bb       	out	0x1b, r17	; 27
 484:	ce 01       	movw	r24, r28
 486:	01 96       	adiw	r24, 0x01	; 1
 488:	4f de       	rcall	.-866    	; 0x128 <_ZN2SW6initSWEv>
		
		if (portC.result != SW_OFF)
 48a:	88 85       	ldd	r24, Y+8	; 0x08
 48c:	99 85       	ldd	r25, Y+9	; 0x09
 48e:	89 2b       	or	r24, r25
 490:	89 f0       	breq	.+34     	; 0x4b4 <main+0x7a>
		{
			switch (portC.result)
 492:	88 85       	ldd	r24, Y+8	; 0x08
 494:	99 85       	ldd	r25, Y+9	; 0x09
 496:	81 30       	cpi	r24, 0x01	; 1
 498:	91 05       	cpc	r25, r1
 49a:	19 f0       	breq	.+6      	; 0x4a2 <main+0x68>
 49c:	02 97       	sbiw	r24, 0x02	; 2
 49e:	29 f0       	breq	.+10     	; 0x4aa <main+0x70>
 4a0:	09 c0       	rjmp	.+18     	; 0x4b4 <main+0x7a>
			{
				case SW_0:
					PORTA = PORTA << 1;
 4a2:	8b b3       	in	r24, 0x1b	; 27
 4a4:	88 0f       	add	r24, r24
 4a6:	8b bb       	out	0x1b, r24	; 27
					break;
 4a8:	05 c0       	rjmp	.+10     	; 0x4b4 <main+0x7a>
					
				case SW_1:
					PORTA = PORTA >> 1;
 4aa:	8b b3       	in	r24, 0x1b	; 27
 4ac:	90 e0       	ldi	r25, 0x00	; 0
 4ae:	95 95       	asr	r25
 4b0:	87 95       	ror	r24
 4b2:	8b bb       	out	0x1b, r24	; 27
			}
		}
		
		portF.changeLine(1, 3);
 4b4:	43 e0       	ldi	r20, 0x03	; 3
 4b6:	50 e0       	ldi	r21, 0x00	; 0
 4b8:	61 e0       	ldi	r22, 0x01	; 1
 4ba:	70 e0       	ldi	r23, 0x00	; 0
 4bc:	ce 01       	movw	r24, r28
 4be:	0a 96       	adiw	r24, 0x0a	; 10
		portF.writeString("Testing System");
 4c0:	71 df       	rcall	.-286    	; 0x3a4 <_ZN3LCD10changeLineEii>
 4c2:	61 e1       	ldi	r22, 0x11	; 17
 4c4:	71 e0       	ldi	r23, 0x01	; 1
 4c6:	ce 01       	movw	r24, r28
 4c8:	0a 96       	adiw	r24, 0x0a	; 10
		portF.changeLine(2, 11);
 4ca:	59 df       	rcall	.-334    	; 0x37e <_ZN3LCD11writeStringEPKc>
 4cc:	4b e0       	ldi	r20, 0x0B	; 11
 4ce:	50 e0       	ldi	r21, 0x00	; 0
 4d0:	62 e0       	ldi	r22, 0x02	; 2
 4d2:	70 e0       	ldi	r23, 0x00	; 0
 4d4:	ce 01       	movw	r24, r28
 4d6:	0a 96       	adiw	r24, 0x0a	; 10
		portF.writeString("by CLJ");
 4d8:	65 df       	rcall	.-310    	; 0x3a4 <_ZN3LCD10changeLineEii>
 4da:	60 e2       	ldi	r22, 0x20	; 32
 4dc:	71 e0       	ldi	r23, 0x01	; 1
 4de:	ce 01       	movw	r24, r28
 4e0:	0a 96       	adiw	r24, 0x0a	; 10
 4e2:	4d df       	rcall	.-358    	; 0x37e <_ZN3LCD11writeStringEPKc>
	portF.initLCD();
	
	PORTA = 0x01;
	
	
    while (true) 
 4e4:	cf cf       	rjmp	.-98     	; 0x484 <main+0x4a>

000004e6 <_exit>:
 4e6:	f8 94       	cli

000004e8 <__stop_program>:
 4e8:	ff cf       	rjmp	.-2      	; 0x4e8 <__stop_program>
